(dp0
I1025
(F0.00115949
F0.13426851460555933
tp1
sI900
(F0.00249667
F0.12577513247645863
tp2
sI775
(F0.00563562
F0.11614409772128
tp3
sI650
(F0.013730299999999999
F0.10452721353502836
tp4
sI525
(F0.037263599999999994
F0.0930567631683466
tp5
sI400
(F0.12101300000000001
F0.07946741259203556
tp6
sI1425
(F0.000121045
F0.15213846090296998
tp7
sI275
(F0.54303
F0.06520505312781982
tp8
sI1300
(F0.00024073900000000001
F0.14104943528053204
tp9
sI150
(F5.18086
F0.048876634381164526
tp10
sI1175
(F0.000486863
F0.13242657585398768
tp11
sI1050
(F0.000997903
F0.13335664889272805
tp12
sI925
(F0.00212907
F0.12588125331717606
tp13
sI800
(F0.00475843
F0.11853930813314477
tp14
sI675
(F0.011397500000000001
F0.10698574248738758
tp15
sI550
(F0.0301656
F0.09549453682340149
tp16
sI425
(F0.09377100000000001
F0.08249320152285888
tp17
sI1450
(F0.000110889
F0.15651056461867274
tp18
sI300
(F0.386936
F0.06812547811524386
tp19
sI1325
(F0.00020999000000000001
F0.13727272727272727
tp20
sI175
(F2.9532800000000003
F0.05227611333838985
tp21
sI1200
(F0.000415851
F0.13929316029058486
tp22
sI1075
(F0.0008650400000000001
F0.13599139924165357
tp23
sI950
(F0.0018164
F0.13360603391323497
tp24
sI825
(F0.00402646
F0.11880460752124695
tp25
sI700
(F0.009510320000000001
F0.10945162728488632
tp26
sI575
(F0.0245798
F0.09771560386984435
tp27
sI450
(F0.07343609999999999
F0.08495685364555036
tp28
sI1475
(F9.06868e-05
F0.16921205732256514
tp29
sI325
(F0.281911
F0.07101567515989088
tp30
sI1350
(F0.000185601
F0.16691343257848829
tp31
sI200
(F1.80739
F0.05605652349520579
tp32
sI1225
(F0.000362455
F0.15502283042032802
tp33
sI1100
(F0.000740372
F0.14476236270415413
tp34
sI975
(F0.0015689299999999998
F0.13870472232668124
tp35
sI850
(F0.00342026
F0.12055077684152667
tp36
sI725
(F0.0079595
F0.1112184182423519
tp37
sI600
(F0.0201372
F0.10152255527084202
tp38
sI475
(F0.0580811
F0.08694824994705679
tp39
sI1500
(F8.13221e-05
F0.17228035183547893
tp40
sI350
(F0.209439
F0.07378711701259079
tp41
sI1375
(F0.000161343
F0.14321414625983156
tp42
sI225
(F1.16509
F0.05905483696538465
tp43
sI1250
(F0.000316975
F0.1466708730972474
tp44
sI100
(F22.670099999999998
F0.04296262477889379
tp45
sI1125
(F0.000647288
F0.141745714426963
tp46
sI1000
(F0.00134352
F0.13070441824461118
tp47
sI875
(F0.0029054700000000003
F0.12605774625103683
tp48
sI750
(F0.0066935599999999994
F0.11503415222990457
tp49
sI625
(F0.016570599999999998
F0.10270901476108289
tp50
sI500
(F0.0463533
F0.08984495170786114
tp51
sI375
(F0.15806
F0.07652537011261545
tp52
sI1400
(F0.00013107399999999999
F0.14406060698536705
tp53
sI250
(F0.7824869999999999
F0.0622966260142341
tp54
sI1275
(F0.00027652199999999997
F0.15557424002430187
tp55
sI125
(F10.034799999999999
F0.04560170606290111
tp56
sI1150
(F0.0005555940000000001
F0.1490500257382189
tp57
s.