(dp0
I1025
(F0.000535563
F0.12465274860287211
tp1
sI900
(F0.00115301
F0.11779776411306059
tp2
sI775
(F0.0026165600000000004
F0.10821039838566666
tp3
sI650
(F0.006432439999999999
F0.0993229629813881
tp4
sI525
(F0.0177394
F0.09014961047160558
tp5
sI400
(F0.058631100000000005
F0.08063297464997245
tp6
sI1425
(F5.91995e-05
F0.15989510046537556
tp7
sI275
(F0.267786
F0.06829557930586364
tp8
sI1300
(F0.000115645
F0.16218600025941457
tp9
sI150
(F2.61231
F0.05288652571861686
tp10
sI1175
(F0.000224723
F0.1341375827129399
tp11
sI1050
(F0.000458716
F0.12411797277618394
tp12
sI925
(F0.000981406
F0.11670908879709316
tp13
sI800
(F0.00221197
F0.11084960465105766
tp14
sI675
(F0.005336420000000001
F0.10147608321683824
tp15
sI550
(F0.0143134
F0.09247837690555703
tp16
sI425
(F0.0452189
F0.08216630656650206
tp17
sI1450
(F5.05255e-05
F0.14008589722021553
tp18
sI300
(F0.190159
F0.07069767931047176
tp19
sI1325
(F9.87141e-05
F0.1447817485040131
tp20
sI175
(F1.48242
F0.056169776446621064
tp21
sI1200
(F0.000196044
F0.1347325090285854
tp22
sI1075
(F0.000398794
F0.12693044529255706
tp23
sI950
(F0.000842779
F0.12113021325875467
tp24
sI825
(F0.0018614200000000001
F0.10839144309183311
tp25
sI700
(F0.0044387
F0.10298578412598283
tp26
sI575
(F0.011626599999999999
F0.09432594223590732
tp27
sI450
(F0.0353143
F0.08418204523380046
tp28
sI1475
(F4.78698e-05
F0.20529206305436834
tp29
sI325
(F0.13808600000000001
F0.07374751966166013
tp30
sI1350
(F8.816540000000001e-05
F0.15357725366186736
tp31
sI200
(F0.902569
F0.0595423729376923
tp32
sI1225
(F0.00016811400000000002
F0.12778828651986152
tp33
sI1100
(F0.000342626
F0.12482181737521379
tp34
sI975
(F0.000713432
F0.10928890209578489
tp35
sI850
(F0.0015835600000000001
F0.11228245219631715
tp36
sI725
(F0.00370675
F0.10408012409792945
tp37
sI600
(F0.00949913
F0.09604290077091271
tp38
sI475
(F0.0278342
F0.08666460685056514
tp39
sI1500
(F4.01287e-05
F0.154313994721982
tp40
sI350
(F0.102199
F0.07585798295482343
tp41
sI1375
(F7.78987e-05
F0.1690695736899332
tp42
sI225
(F0.579564
F0.06223626726297699
tp43
sI1250
(F0.000148219
F0.13379728644775638
tp44
sI100
(F11.6119
F0.04466219998449867
tp45
sI1125
(F0.00030111900000000003
F0.13771100461943617
tp46
sI1000
(F0.000621866
F0.12398249783715462
tp47
sI875
(F0.00134699
F0.11141508103252437
tp48
sI750
(F0.00310861
F0.10627032660899888
tp49
sI625
(F0.00780081
F0.09857796818535511
tp50
sI500
(F0.0221265
F0.08808623144193614
tp51
sI375
(F0.07683419999999999
F0.07842939732567009
tp52
sI1400
(F6.866709999999999e-05
F0.16671448189890065
tp53
sI250
(F0.387534
F0.06531839786960628
tp54
sI1275
(F0.000128682
F0.13483470881708398
tp55
sI125
(F5.090520000000001
F0.0490065847889803
tp56
sI1150
(F0.000262408
F0.1423436023291973
tp57
s.