(dp0
I900
(dp1
I2050
(F0.000463191012386
F0.0007039450060146617
tp2
sI1800
(F0.000837341009174
F0.0006846004121612053
tp3
sI1550
(F0.00150554999709
F0.0006797914396587247
tp4
sI2450
(F0.000191810002434
F0.0007141129151861174
tp5
sI1300
(F0.0024424099829
F0.0007696332774434796
tp6
sI2200
(F0.00032797298627
F0.0007165712111622686
tp7
sI1050
(F0.00468974979594
F0.0007563793708293139
tp8
sI1950
(F0.000584402005188
F0.000695872013425375
tp9
sI1700
(F0.00103645003401
F0.0006948120761922343
tp10
sI1450
(F0.00184281996917
F0.0007051095721440662
tp11
sI2350
(F0.000238230000832
F0.0007148511917275062
tp12
sI1200
(F0.00315083004534
F0.0007662996623924405
tp13
sI2100
(F0.000412782013882
F0.0007086985143776793
tp14
sI1850
(F0.000741333991755
F0.000688868992491542
tp15
sI1600
(F0.00132650998421
F0.0006851226231374707
tp16
sI2500
(F0.000171806997969
F0.0007170196875346581
tp17
sI1350
(F0.00238199997693
F0.0006974265390804493
tp18
sI2250
(F0.00029783899663
F0.0007085942485301206
tp19
sI1100
(F0.00413837982342
F0.0007556701253718196
tp20
sI2000
(F0.000507735996507
F0.000716340780449246
tp21
sI1750
(F0.000918429985177
F0.0006983896544671122
tp22
sI1500
(F0.00162574998103
F0.0007092049905911848
tp23
sI2400
(F0.000215412001126
F0.0007111674335655648
tp24
sI1250
(F0.00310426997021
F0.0006839450242326611
tp25
sI2150
(F0.000360306003131
F0.0007266129282470315
tp26
sI1000
(F0.00592271983624
F0.0006844068455166656
tp27
sI1900
(F0.000642371014692
F0.0007100133560955955
tp28
sI1650
(F0.00117247004528
F0.0006910069926831419
tp29
sI1400
(F0.00221775006503
F0.0006627662977794195
tp30
sI2300
(F0.000265734997811
F0.0007117579602161484
tp31
sI1150
(F0.00407571019605
F0.000672071827544236
tp32
ssI650
(dp33
I2050
(F0.000815498991869
F0.0007154699218729709
tp34
sI1800
(F0.00150160002522
F0.0006962306755734299
tp35
sI1550
(F0.00269295996986
F0.0007145260314062647
tp36
sI2450
(F0.000336346012773
F0.0007076878897346856
tp37
sI1300
(F0.00541356997564
F0.0006729625767087833
tp38
sI2200
(F0.000597576028667
F0.0006982525737030829
tp39
sI1050
(F0.0102134998888
F0.0007067812286281953
tp40
sI1950
(F0.00103654002305
F0.0007097622702838094
tp41
sI1700
(F0.00202153995633
F0.0006587750075530063
tp42
sI1450
(F0.00351514993235
F0.0007060808351752752
tp43
sI2350
(F0.000422557990532
F0.0007040856087597029
tp44
sI1200
(F0.00668198009953
F0.0007082750815634558
tp45
sI2100
(F0.000760407012422
F0.00037160756724213584
tp46
sI1850
(F0.00137348996941
F0.0006766805879181204
tp47
sI1600
(F0.0023618999403
F0.0007176002552355033
tp48
sI2500
(F0.000299939012621
F0.0007130016136654675
tp49
sI1350
(F0.00472139008343
F0.000677876630281496
tp50
sI2250
(F0.000523202004842
F0.0007119257888021363
tp51
sI1100
(F0.0100424000993
F0.0006239673721461044
tp52
sI2000
(F0.000947451975662
F0.0006912835867404997
tp53
sI1750
(F0.00169363000896
F0.0006967637522699745
tp54
sI1500
(F0.00328383990563
F0.0006638082435939583
tp55
sI2400
(F0.000375951000024
F0.0007068181757277848
tp56
sI1250
(F0.00606172997504
F0.0006865828760332626
tp57
sI2150
(F0.000661423022393
F0.0007038037447136292
tp58
sI1000
(F0.0129936002195
F0.0006397564846981168
tp59
sI1900
(F0.00117155001499
F0.0007067056373236162
tp60
sI1650
(F0.00220269989222
F0.0006820266370857724
tp61
sI1400
(F0.00401622988284
F0.0006985282421175003
tp62
sI2300
(F0.00047516298946
F0.0007001976319285868
tp63
sI1150
(F0.00809225998819
F0.0006731518769725546
tp64
ssI400
(dp65
I2050
(F0.00149775994942
F0.0007129713946574171
tp66
sI1800
(F0.0028458898887
F0.0006913373591199406
tp67
sI1550
(F0.00521242013201
F0.0007146641877778806
tp68
sI2450
(F0.00061349599855
F0.0006946108874502617
tp69
sI1300
(F0.01097210031
F0.0006759827007086485
tp70
sI2200
(F0.00104270002339
F0.0007167507271844256
tp71
sI1050
(F0.02451390028
F0.0006347663905892335
tp72
sI1950
(F0.00192581000738
F0.0007056563185320755
tp73
sI1700
(F0.00372195988894
F0.0006809181387287259
tp74
sI1450
(F0.0068316902034
F0.000713177830806086
tp75
sI2350
(F0.000745590019505
F0.0007103971165703727
tp76
sI1200
(F0.0153425000608
F0.000645530386882956
tp77
sI2100
(F0.00137065001763
F0.0006932776330773832
tp78
sI1850
(F0.00249485997483
F0.0006960711292497817
tp79
sI1600
(F0.00462635001168
F0.0007074799770308415
tp80
sI2500
(F0.000536519975867
F0.0007048740345387405
tp81
sI1350
(F0.00982171017677
F0.0006552025954930288
tp82
sI2250
(F0.000947616004851
F0.0007040847733517425
tp83
sI1100
(F0.0206930991262
F0.0006460221312656943
tp84
sI2000
(F0.00175667996518
F0.000687148498261784
tp85
sI1750
(F0.00324791995808
F0.0006858728136012551
tp86
sI1500
(F0.00642126007006
F0.000665528253547293
tp87
sI2400
(F0.000678537006024
F0.0007008121823545472
tp88
sI1250
(F0.0131422001868
F0.0006511116767643423
tp89
sI2150
(F0.00124658003915
F0.0006797862739546338
tp90
sI1000
(F0.0289044007659
F0.0006314540179477646
tp91
sI1900
(F0.00229470990598
F0.0006727560620960927
tp92
sI1650
(F0.00427100993693
F0.0006739225715941421
tp93
sI1400
(F0.00792185030878
F0.0007051206198391607
tp94
sI2300
(F0.00086155399913
F0.000694303549869241
tp95
sI1150
(F0.0178527999669
F0.0006443695118596876
tp96
ssI1300
(dp97
I2050
(F0.000185144002899
F0.0007177116078260924
tp98
sI1800
(F0.000324194988934
F0.0007025925994382692
tp99
sI1550
(F0.000566350005101
F0.0006964580143857468
tp100
sI2450
(F7.90139965829e-05
F0.0007259511286689397
tp101
sI1300
(F0.000993757043034
F0.0007007235871999504
tp102
sI2200
(F0.000133345005452
F0.0007247035588054759
tp103
sI1050
(F0.00170283997431
F0.0007365695067783648
tp104
sI1950
(F0.000231052006711
F0.0007108486194860676
tp105
sI1700
(F0.000408035994042
F0.0006928408378867202
tp106
sI1450
(F0.000717441027518
F0.000688809227581568
tp107
sI2350
(F9.65294020716e-05
F0.0007302624743051159
tp108
sI1200
(F0.00126996997278
F0.000692066756567523
tp109
sI2100
(F0.000167737001902
F0.0007121684461118036
tp110
sI1850
(F0.000284406007268
F0.0007181669682790182
tp111
sI1600
(F0.000503905990627
F0.0007025397724672959
tp112
sI2500
(F7.09121013642e-05
F0.0007271918192799948
tp113
sI1350
(F0.000880640000105
F0.0007046239097997075
tp114
sI2250
(F0.000120812001114
F0.0007194881236838248
tp115
sI1100
(F0.00163336005062
F0.000681564361499738
tp116
sI2000
(F0.000206565004191
F0.0007141964854007336
tp117
sI1750
(F0.000347082997905
F0.0007306292775234406
tp118
sI1500
(F0.000616399978753
F0.0007159133926200711
tp119
sI2400
(F8.76081976457e-05
F0.000726710532928363
tp120
sI1250
(F0.00112385000102
F0.0006957343055482057
tp121
sI2150
(F0.000148644001456
F0.0007221145754191301
tp122
sI1000
(F0.00194721005391
F0.0007282213837960904
tp123
sI1900
(F0.000257470004726
F0.0007118732148820723
tp124
sI1650
(F0.000436747010099
F0.0007236523495108951
tp125
sI1400
(F0.0007815840072
F0.0007080825540208163
tp126
sI2300
(F0.00010744100291
F0.0007285868325854405
tp127
sI1150
(F0.00133131002076
F0.0007412691143394499
tp128
ssI150
(dp129
I2050
(F0.0028303200379
F0.0006044369460314876
tp130
sI1800
(F0.00581134995446
F0.0006090082386595602
tp131
sI1550
(F0.0114118997008
F0.0006325633934106474
tp132
sI2450
(F0.00110097997822
F0.0005734027979515641
tp133
sI1300
(F0.0255625993013
F0.0006206763174976936
tp134
sI2200
(F0.00200213002972
F0.0005910854851747585
tp135
sI1050
(F0.0593050010502
F0.0006217384596079635
tp136
sI1950
(F0.00367338000797
F0.0006143524479099933
tp137
sI1700
(F0.00744159985334
F0.000622015439048697
tp138
sI1450
(F0.0157520007342
F0.0006262963141298403
tp139
sI2350
(F0.00144794001244
F0.0005794722107210007
tp140
sI1200
(F0.0344136990607
F0.0006359473290388805
tp141
sI2100
(F0.00259316992015
F0.0005905899139503406
tp142
sI1850
(F0.00498527986929
F0.0006141901919813532
tp143
sI1600
(F0.00987179018557
F0.000629744948295925
tp144
sI2500
(F0.00097396899946
F0.0005768181536696567
tp145
sI1350
(F0.0214224997908
F0.0006254312116158343
tp146
sI2250
(F0.00181902002078
F0.0005862222448451923
tp147
sI1100
(F0.0490742996335
F0.0006275790022477693
tp148
sI2000
(F0.00321134994738
F0.0006098058548859464
tp149
sI1750
(F0.00639163982123
F0.0006208078225591264
tp150
sI1500
(F0.0136818997562
F0.0006219012090147944
tp151
sI2400
(F0.00127593998332
F0.0005794285073474203
tp152
sI1250
(F0.0303428992629
F0.0006143216519454794
tp153
sI2150
(F0.00227715005167
F0.0005880244909719494
tp154
sI1000
(F0.069705799222
F0.0006323548469707265
tp155
sI1900
(F0.0041974298656
F0.0006160984418569531
tp156
sI1650
(F0.00872156023979
F0.0006231350642062249
tp157
sI1400
(F0.0183621998876
F0.0006262321546649364
tp158
sI2300
(F0.00160101999063
F0.0005812494568751842
tp159
sI1150
(F0.0416836999357
F0.0006217850152453063
tp160
ssI1050
(dp161
I2050
(F0.000326640991261
F0.000708435273560318
tp162
sI1800
(F0.000568826973904
F0.0007079586912627037
tp163
sI1550
(F0.00103646004573
F0.000687168794334341
tp164
sI2450
(F0.000137458002428
F0.000717864353162605
tp165
sI1300
(F0.00184893002734
F0.00069372014139729
tp166
sI2200
(F0.00023312799749
F0.0007165591511897476
tp167
sI1050
(F0.00357598997653
F0.0006645096925875191
tp168
sI1950
(F0.000410542997997
F0.000704167410990925
tp169
sI1700
(F0.000720367999747
F0.000700118550764512
tp170
sI1450
(F0.00127069000155
F0.0007072983960711797
tp171
sI2350
(F0.000169578997884
F0.0007177775639602623
tp172
sI1200
(F0.00239526992664
F0.0006823239342768388
tp173
sI2100
(F0.000286547001451
F0.0007250363777948197
tp174
sI1850
(F0.000506407988723
F0.0007121570117987761
tp175
sI1600
(F0.000882490014192
F0.0007184251264083565
tp176
sI2500
(F0.000121682998724
F0.0007289383145560619
tp177
sI1350
(F0.00171068997588
F0.0006652871157525474
tp178
sI2250
(F0.000211791004403
F0.0007095060549128378
tp179
sI1100
(F0.00312174996361
F0.0006705565866586224
tp180
sI2000
(F0.000366140011465
F0.0007073168511788176
tp181
sI1750
(F0.000639353995211
F0.0007036899798389801
tp182
sI1500
(F0.00117249996401
F0.0006817646264705406
tp183
sI2400
(F0.000151473999722
F0.0007233914744517397
tp184
sI1250
(F0.00191532005556
F0.0007539366571180164
tp185
sI2150
(F0.00025961198844
F0.0007184837692621002
tp186
sI1000
(F0.00362779991701
F0.0007453222509108257
tp187
sI1900
(F0.000461860006908
F0.0007011626795054089
tp188
sI1650
(F0.000831335026305
F0.0006793602845175864
tp189
sI1400
(F0.00143675005529
F0.0007033860874263325
tp190
sI2300
(F0.000189275000594
F0.0007156729603745357
tp191
sI1150
(F0.00271253008395
F0.0006826431201469145
tp192
ssI800
(dp193
I2050
(F0.000586641021073
F0.0007027500382532903
tp194
sI1800
(F0.00103647005744
F0.0007007341840572602
tp195
sI1550
(F0.00183978001587
F0.0007125471462304606
tp196
sI2450
(F0.000238763997913
F0.0007154638115175361
tp197
sI1300
(F0.00353926001117
F0.00068785282582141
tp198
sI2200
(F0.000414015987189
F0.0007109846216291738
tp199
sI1050
(F0.00678254989907
F0.0006909938105494255
tp200
sI1950
(F0.00072241097223
F0.0007121984850421047
tp201
sI1700
(F0.00132553000003
F0.0006914207901588477
tp202
sI1450
(F0.00252876989543
F0.0006624960234727593
tp203
sI2350
(F0.000294196011964
F0.0007198975899983183
tp204
sI1200
(F0.00503638992086
F0.0006259106323248532
tp205
sI2100
(F0.000529199023731
F0.0006951241092746014
tp206
sI1850
(F0.000918445992284
F0.0007043789242208989
tp207
sI1600
(F0.00170758995228
F0.0006823593676246575
tp208
sI2500
(F0.00021753400506
F0.0007067952431510297
tp209
sI1350
(F0.00329692009836
F0.0006498185992028447
tp210
sI2250
(F0.000375683011953
F0.0007035559010931992
tp211
sI1100
(F0.00614219997078
F0.0006681856695523404
tp212
sI2000
(F0.000659350014757
F0.0006973655717130146
tp213
sI1750
(F0.0011714999564
F0.00069672900587058
tp214
sI1500
(F0.00208684010431
F0.0007109696602704351
tp215
sI2400
(F0.000267169001745
F0.0007152888200046449
tp216
sI1250
(F0.00405143015087
F0.0006829835137120171
tp217
sI2150
(F0.000464424985694
F0.0007076987890926175
tp218
sI1000
(F0.00813306961209
F0.0006593586746175581
tp219
sI1900
(F0.000838368025143
F0.0006894012923517874
tp220
sI1650
(F0.00150456000119
F0.0006862404950173963
tp221
sI1400
(F0.00288483011536
F0.0006570820201533602
tp222
sI2300
(F0.000333978008712
F0.0007061003834038574
tp223
sI1150
(F0.00564166996628
F0.0006370560528144203
tp224
ssI550
(dp225
I2050
(F0.00107152003329
F0.0006921597141985247
tp226
sI1800
(F0.00193070003297
F0.0006942404190764455
tp227
sI1550
(F0.00375689007342
F0.0006639720490222424
tp228
sI2450
(F0.000423805002356
F0.0007072427138276711
tp229
sI1300
(F0.00691176997498
F0.0006944964918358542
tp230
sI2200
(F0.000745485012885
F0.0007046580292299393
tp231
sI1050
(F0.0149932000786
F0.0006494984358875639
tp232
sI1950
(F0.00140647997614
F0.0006669344860311252
tp233
sI1700
(F0.00235792994499
F0.0007281089939282659
tp234
sI1450
(F0.00438630022109
F0.0007344070942776226
tp235
sI2350
(F0.00053411902627
F0.0007010085422621281
tp236
sI1200
(F0.00921227037907
F0.000686246684027332
tp237
sI2100
(F0.000918568985071
F0.0007177969327464681
tp238
sI1850
(F0.00177056994289
F0.0006723710660403777
tp239
sI1600
(F0.00327184004709
F0.0006696904397722008
tp240
sI2500
(F0.000378197990358
F0.0007087160874289141
tp241
sI1350
(F0.00601158989593
F0.0006998681002588789
tp242
sI2250
(F0.000674434006214
F0.000696551472303634
tp243
sI1100
(F0.0128829004243
F0.0006526379715037536
tp244
sI2000
(F0.00124046998098
F0.0006733101266506716
tp245
sI1750
(F0.00219972990453
F0.0006889073048828631
tp246
sI1500
(F0.00399120012298
F0.0007074789318987375
tp247
sI2400
(F0.000483587005874
F0.0006937283176037401
tp248
sI1250
(F0.00862170010805
F0.0006394504483927043
tp249
sI2150
(F0.000835496990476
F0.0007034747063124023
tp250
sI1000
(F0.0175039991736
F0.0006452696831153374
tp251
sI1900
(F0.00159948004875
F0.0006602708178981905
tp252
sI1650
(F0.00286379992031
F0.0006773587729515751
tp253
sI1400
(F0.00566216977313
F0.0006500688159276588
tp254
sI2300
(F0.000609394977801
F0.0006892984276236855
tp255
sI1150
(F0.0102829001844
F0.0007094302063796273
tp256
ssI1450
(dp257
I2050
(F0.000132524000946
F0.0007221484358821616
tp258
sI1800
(F0.000225679003051
F0.0007202043513249196
tp259
sI1550
(F0.00038541801041
F0.0007245120686055901
tp260
sI2450
(F5.64133006264e-05
F0.0007353283629816074
tp261
sI1300
(F0.000692642992362
F0.000703496614234616
tp262
sI2200
(F9.58188975346e-05
F0.000727471321352132
tp263
sI1050
(F0.00126947998069
F0.0006829237271853494
tp264
sI1950
(F0.000162665994139
F0.000724902587194952
tp265
sI1700
(F0.000288011011435
F0.0007000253184607896
tp266
sI1450
(F0.000501646019984
F0.0006954505489969345
tp267
sI2350
(F7.0269103162e-05
F0.0007273993504963527
tp268
sI1200
(F0.000878925027791
F0.0006964962660564579
tp269
sI2100
(F0.000119506003102
F0.0007192433666000625
tp270
sI1850
(F0.000205862001167
F0.0007121906868138533
tp271
sI1600
(F0.000345893000485
F0.0007246894260610235
tp272
sI2500
(F5.11491016368e-05
F0.0007344801530780188
tp273
sI1350
(F0.000615534023382
F0.0007091468276630191
tp274
sI2250
(F8.63992027007e-05
F0.0007268539296311261
tp275
sI1100
(F0.00112114998046
F0.0006874432622152623
tp276
sI2000
(F0.000145750993397
F0.0007268423873547372
tp277
sI1750
(F0.000252405006904
F0.0007164715241515842
tp278
sI1500
(F0.000434535992099
F0.0007191901377154511
tp279
sI2400
(F6.30993017694e-05
F0.0007289066393806682
tp280
sI1250
(F0.000780729984399
F0.0007019866163099832
tp281
sI2150
(F0.000107109000965
F0.0007230522113198201
tp282
sI1000
(F0.00143866997678
F0.0006776960774438217
tp283
sI1900
(F0.000183144002222
F0.0007165399816966329
tp284
sI1650
(F0.00031681501423
F0.0007108028025354737
tp285
sI1400
(F0.000550878990907
F0.0007077289321890637
tp286
sI2300
(F7.80026020948e-05
F0.0007254924641004068
tp287
sI1150
(F0.000931136019062
F0.0007385934878695818
tp288
ssI300
(dp289
I2050
(F0.00191990996245
F0.0007103249770419982
tp290
sI1800
(F0.00369905005209
F0.0006919317024525966
tp291
sI1550
(F0.00730143021792
F0.0006756635142375406
tp292
sI2450
(F0.00078061100794
F0.0006912392914160319
tp293
sI1300
(F0.0156020000577
F0.0006434623742387016
tp294
sI2200
(F0.00137076003011
F0.0006986948692420975
tp295
sI1050
(F0.0337345004082
F0.0006449154348440178
tp296
sI1950
(F0.00247995997779
F0.00070405974920449
tp297
sI1700
(F0.00484514981508
F0.0006847982263981276
tp298
sI1450
(F0.00972166005522
F0.0006709615397935644
tp299
sI2350
(F0.000973666028585
F0.0006953575251916008
tp300
sI1200
(F0.0208027996123
F0.0006503836143285388
tp301
sI2100
(F0.00175378995482
F0.0006941595238666702
tp302
sI1850
(F0.00341686001047
F0.0006648501820498993
tp303
sI1600
(F0.00619133003056
F0.0006955226064100652
tp304
sI2500
(F0.000681634002831
F0.0007023637289390029
tp305
sI1350
(F0.013132000342
F0.0006600037903045007
tp306
sI2250
(F0.00124569004402
F0.0006872656678198953
tp307
sI1100
(F0.0294633992016
F0.0006290550480337486
tp308
sI2000
(F0.00230182008818
F0.00036026230036756575
tp309
sI1750
(F0.00424609007314
F0.0006876938429713152
tp310
sI1500
(F0.00842153001577
F0.0006743204606960928
tp311
sI2400
(F0.000862656976096
F0.0006987702142374121
tp312
sI1250
(F0.018192300573
F0.0006402928509925736
tp313
sI2150
(F0.00160369998775
F0.0006785059601619368
tp314
sI1000
(F0.0401050001383
F0.0006414661491406366
tp315
sI1900
(F0.00282998988405
F0.0007015678788076268
tp316
sI1650
(F0.00554222986102
F0.0006827775272575156
tp317
sI1400
(F0.0108519997448
F0.0006910910593776666
tp318
sI2300
(F0.00107173004653
F0.0007065911816617173
tp319
sI1150
(F0.0244932007045
F0.0006473061724875803
tp320
ssI1200
(dp321
I2050
(F0.000232976002735
F0.0007108672054451025
tp322
sI1800
(F0.000400849996367
F0.0007103255646267001
tp323
sI1550
(F0.000719374977052
F0.0006932073201149909
tp324
sI2450
(F9.75497969193e-05
F0.0007276150462795789
tp325
sI1300
(F0.00127080001403
F0.0006982215849889449
tp326
sI2200
(F0.000166558005731
F0.000722607114991406
tp327
sI1050
(F0.00252958992496
F0.0006387438469994498
tp328
sI1950
(F0.000290294992737
F0.0007068637252930683
tp329
sI1700
(F0.000490734004416
F0.0007273696071353031
tp330
sI1450
(F0.000915465003345
F0.0006851523517645844
tp331
sI2350
(F0.000121432996821
F0.0007221957976485836
tp332
sI1200
(F0.00150228000712
F0.000747077771574411
tp333
sI2100
(F0.000207870005397
F0.0007153220577255344
tp334
sI1850
(F0.000364909996279
F0.0006993943783465689
tp335
sI1600
(F0.000618398014922
F0.0007200249503649554
tp336
sI2500
(F8.79194994923e-05
F0.000728938408090151
tp337
sI1350
(F0.00112369004637
F0.0007020459089661128
tp338
sI2250
(F0.000150948006194
F0.0007166507377445566
tp339
sI1100
(F0.00210647005588
F0.0006784810427333309
tp340
sI2000
(F0.00025610299781
F0.0007189841648656022
tp341
sI1750
(F0.000449963001302
F0.000708413800862838
tp342
sI1500
(F0.000810422003269
F0.0006884499652643402
tp343
sI2400
(F0.000109036001959
F0.000723839819710901
tp344
sI1250
(F0.00143793004099
F0.0006928299511109027
tp345
sI2150
(F0.000185865006642
F0.0007207542851679985
tp346
sI1000
(F0.00274619995616
F0.0006645655921398863
tp347
sI1900
(F0.000324196007568
F0.0007079390080146503
tp348
sI1650
(F0.000581774977036
F0.0006840084494994972
tp349
sI1400
(F0.000936729018576
F0.0007496330166727166
tp350
sI2300
(F0.000135442998726
F0.0007192693673083819
tp351
sI1150
(F0.00185322004836
F0.0006832809741728085
tp352
ssI50
(dp353
I2050
(F5.29200008259e-08
F0.0007229535034564003
tp354
sI1800
(F1.48899999886e-07
F0.0007798455345124405
tp355
sI1550
(F4.14402990145e-07
F0.0008348250573166722
tp356
sI2450
(F1.00279997639e-08
F0.0006366912794498216
tp357
sI1300
(F1.18700995699e-06
F0.0008588133519831866
tp358
sI2200
(F2.81000005486e-08
F0.0006988006981009942
tp359
sI1050
(F3.65305004379e-06
F0.0008119680717329131
tp360
sI1950
(F7.91700003333e-08
F0.0007564721453564209
tp361
sI1700
(F2.33400001548e-07
F0.0007695586924109818
tp362
sI1450
(F6.31205011814e-07
F0.0008457584936878023
tp363
sI2350
(F1.50700003587e-08
F0.0006653549941166002
tp364
sI1200
(F1.81302004876e-06
F0.0008628917264704192
tp365
sI2100
(F4.29700008908e-08
F0.0007147474834373502
tp366
sI1850
(F1.20500004641e-07
F0.0007716954059631669
tp367
sI1600
(F3.56400988721e-07
F0.0007809321769807999
tp368
sI2500
(F8.08300004707e-09
F0.000632035131788953
tp369
sI1350
(F1.03400998341e-06
F0.000794965245199247
tp370
sI2250
(F2.38299993072e-08
F0.0006589215466429227
tp371
sI1100
(F2.53804000749e-06
F0.0009440828327878282
tp372
sI2000
(F6.45899973506e-08
F0.000743124353132585
tp373
sI1750
(F1.83699995659e-07
F0.0007867610419996173
tp374
sI1500
(F5.11403982273e-07
F0.0008393501319488307
tp375
sI2400
(F1.2433000407e-08
F0.000643953972324518
tp376
sI1250
(F1.46801994561e-06
F0.0008595319183321351
tp377
sI2150
(F3.53400011477e-08
F0.0006945047878584282
tp378
sI1000
(F4.25607004217e-06
F0.0008635313713319759
tp379
sI1900
(F1.01090002147e-07
F0.0007380393551828025
tp380
sI1650
(F2.72100010079e-07
F0.0008223998225322756
tp381
sI1400
(F7.78606988661e-07
F0.0008495788114329491
tp382
sI2300
(F1.86900006582e-08
F0.0006702460973164269
tp383
sI1150
(F2.24202995014e-06
F0.0008643773915147687
tp384
ssI950
(dp385
I2050
(F0.000411763990996
F0.0007084470871150892
tp386
sI1800
(F0.000722374999896
F0.0007054701506466433
tp387
sI1550
(F0.00132750999182
F0.0006822863899941263
tp388
sI2450
(F0.000171991996467
F0.0007133529613021303
tp389
sI1300
(F0.00251490995288
F0.0006557888874356428
tp390
sI2200
(F0.000287968985504
F0.0007293597941889564
tp391
sI1050
(F0.00468721007928
F0.0006615662510429504
tp392
sI1950
(F0.000507624994498
F0.0007159064347479284
tp393
sI1700
(F0.000918430974707
F0.000695753973458763
tp394
sI1450
(F0.00162677001208
F0.0007058526967385061
tp395
sI2350
(F0.000212215003558
F0.0007141436630731892
tp396
sI1200
(F0.00310638989322
F0.0006814630721727236
tp397
sI2100
(F0.000368364999304
F0.0007101461878687218
tp398
sI1850
(F0.000658302975353
F0.0006911073123375131
tp399
sI1600
(F0.00112258002628
F0.0007177902520412551
tp400
sI2500
(F0.000152799999341
F0.0007217997413328929
tp401
sI1350
(F0.00208495999686
F0.0006998407653851873
tp402
sI2250
(F0.000265420996584
F0.0007083199988682927
tp403
sI1100
(F0.00408688001335
F0.0006694911499878374
tp404
sI2000
(F0.000452417996712
F0.0007168923481319092
tp405
sI1750
(F0.000812403974123
F0.0007000421195796549
tp406
sI1500
(F0.00150557002053
F0.0006772385117239938
tp407
sI2400
(F0.00018862199795
F0.0007238392206840687
tp408
sI1250
(F0.00290108006448
F0.0006437154295962983
tp409
sI2150
(F0.000330053997459
F0.0007085325486144121
tp410
sI1000
(F0.00539375003427
F0.0006549691731270835
tp411
sI1900
(F0.000571036012843
F0.0007128902395721997
tp412
sI1650
(F0.00103644002229
F0.0006918248857427572
tp413
sI1400
(F0.00194668001495
F0.0006656358466973227
tp414
sI2300
(F0.00023710700043
F0.0007110587190350549
tp415
sI1150
(F0.0031659998931
F0.000758496551194972
tp416
ssI700
(dp417
I2050
(F0.000744401011616
F0.0006980632641429782
tp418
sI1800
(F0.00132555002347
F0.0006977330041297623
tp419
sI1550
(F0.00251471996307
F0.0006722060606447517
tp420
sI2450
(F0.000299815001199
F0.0007106382240646558
tp421
sI1300
(F0.00444441987202
F0.0007159944585869406
tp422
sI2200
(F0.000523075985257
F0.0007106405388069295
tp423
sI1050
(F0.00986265018582
F0.0006316922817517543
tp424
sI1950
(F0.000947425025515
F0.0006883214844842361
tp425
sI1700
(F0.00170559994876
F0.0006889188762313575
tp426
sI1450
(F0.00308205001056
F0.000702558359721933
tp427
sI2350
(F0.000374627008568
F0.0007076745507842318
tp428
sI1200
(F0.00554235000163
F0.0007439479640923733
tp429
sI2100
(F0.000663393991999
F0.0006994350349809913
tp430
sI1850
(F0.00117152999155
F0.0007031924115831229
tp431
sI1600
(F0.00220368010923
F0.0006766590095152365
tp432
sI2500
(F0.000267610012088
F0.0007155113461787633
tp433
sI1350
(F0.00402827979997
F0.0006903219582762622
tp434
sI2250
(F0.000475336011732
F0.000697123701594966
tp435
sI1100
(F0.007042999845
F0.0007694022602949525
tp436
sI2000
(F0.000818470027298
F0.0007105538145604629
tp437
sI1750
(F0.00150158000179
F0.0006933629901562889
tp438
sI1500
(F0.00288179004565
F0.0006637402342642103
tp439
sI2400
(F0.000336221011821
F0.0007099139899295605
tp440
sI1250
(F0.0053076101467
F0.0006843362454302167
tp441
sI2150
(F0.000584385008551
F0.0007099189642606894
tp442
sI1000
(F0.0112731000409
F0.000635760347552794
tp443
sI1900
(F0.0010365099879
F0.0007063569174893815
tp444
sI1650
(F0.00183577998541
F0.0007206745963648381
tp445
sI1400
(F0.00375693989918
F0.0006552433805335293
tp446
sI2300
(F0.00042243200005
F0.0007042506248692984
tp447
sI1150
(F0.00610264996067
F0.0007749633405945463
tp448
ssI450
(dp449
I2050
(F0.00137160997838
F0.0006897937569085534
tp450
sI1800
(F0.00234298990108
F0.0007378777002850469
tp451
sI1550
(F0.00490503991023
F0.0006642208951664226
tp452
sI2450
(F0.000535383995157
F0.0007048473682694585
tp453
sI1300
(F0.00952188018709
F0.0006724974347694421
tp454
sI2200
(F0.000972522015218
F0.000685005572702299
tp455
sI1050
(F0.0210734996945
F0.0006299143565349294
tp456
sI1950
(F0.00176764000207
F0.0006801441462017727
tp457
sI1700
(F0.00325889000669
F0.0006821494421218329
tp458
sI1450
(F0.006121550221
F0.0006934011560402748
tp459
sI2350
(F0.000662538979668
F0.0007116260544191073
tp460
sI1200
(F0.0132122999057
F0.0006439764507865383
tp461
sI2100
(F0.00121160002891
F0.0006950808681951239
tp462
sI1850
(F0.00219778995961
F0.0006957716743193017
tp463
sI1600
(F0.00428298022598
F0.0006663140732448776
tp464
sI2500
(F0.000478975998703
F0.0007026385474665165
tp465
sI1350
(F0.00789187010378
F0.0007049837271567814
tp466
sI2250
(F0.000860514992382
F0.000690075135537431
tp467
sI1100
(F0.0177529994398
F0.0006439587878525158
tp468
sI2000
(F0.00155663001351
F0.0006846713674733815
tp469
sI1750
(F0.00284885009751
F0.000686912239331375
tp470
sI1500
(F0.00562414014712
F0.0006610183784100282
tp471
sI2400
(F0.000604890985414
F0.0006985754626691778
tp472
sI1250
(F0.0110221002251
F0.0006692562986500219
tp473
sI2150
(F0.00103666004725
F0.0007200663341663282
tp474
sI1000
(F0.0246939007193
F0.0006295765167569972
tp475
sI1900
(F0.00192875997163
F0.000701492160715347
tp476
sI1650
(F0.00373392994516
F0.0006741958303912765
tp477
sI1400
(F0.00703172991052
F0.0006920132118157753
tp478
sI2300
(F0.000763508025557
F0.0006944340887749021
tp479
sI1150
(F0.0154224997386
F0.000638760263703805
tp480
ssI1350
(dp481
I2050
(F0.000165524994372
F0.0007191663135325057
tp482
sI1800
(F0.000284226000076
F0.0007149134841487638
tp483
sI1550
(F0.000488467980176
F0.0007200492443194974
tp484
sI2450
(F7.05003985786e-05
F0.0007290838213161875
tp485
sI1300
(F0.000880700012203
F0.0007020029424701466
tp486
sI2200
(F0.00012010899809
F0.0007222980907308307
tp487
sI1050
(F0.00163356005214
F0.0006782487111805579
tp488
sI1950
(F0.000202877999982
F0.0007261506916130419
tp489
sI1700
(F0.000356455013389
F0.0007077442889677848
tp490
sI1450
(F0.000636395008769
F0.0006913724871146924
tp491
sI2350
(F8.76229969435e-05
F0.0007233112563002962
tp492
sI1200
(F0.00104707002174
F0.0007436818778423181
tp493
sI2100
(F0.000148338993313
F0.000720929794732724
tp494
sI1850
(F0.000255407008808
F0.0007159983621963628
tp495
sI1600
(F0.000448698003311
F0.0007039523190859195
tp496
sI2500
(F6.3498300733e-05
F0.0007314794169895191
tp497
sI1350
(F0.000735706009436
F0.000748523177651039
tp498
sI2250
(F0.000108216998342
F0.0007205771846818612
tp499
sI1100
(F0.00143827998545
F0.0006836819047386961
tp500
sI2000
(F0.000184749005712
F0.0007161608231129228
tp501
sI1750
(F0.000318100996083
F0.0007123869550564747
tp502
sI1500
(F0.000565260008443
F0.0006959487565440765
tp503
sI2400
(F7.84099975135e-05
F0.0007275551818526459
tp504
sI1250
(F0.000993777997792
F0.0006969856462297861
tp505
sI2150
(F0.000133021007059
F0.0007238247712054559
tp506
sI1000
(F0.00170311005786
F0.0007334053335164302
tp507
sI1900
(F0.000230869001825
F0.0007126638860106312
tp508
sI1650
(F0.000398559990572
F0.0007070102535771092
tp509
sI1400
(F0.000693528971169
F0.0007100179235050398
tp510
sI2300
(F9.70999972196e-05
F0.0007238403914785358
tp511
sI1150
(F0.00127110001631
F0.0006889961362304091
tp512
ssI200
(dp513
I2050
(F0.00259498995729
F0.0006713667600545953
tp514
sI1800
(F0.00480832019821
F0.0006806909409274442
tp515
sI1550
(F0.00992162991315
F0.0006622823122328911
tp516
sI2450
(F0.000973811023869
F0.0006686666961449344
tp517
sI1300
(F0.0215923003852
F0.0006358933395263074
tp518
sI2200
(F0.00175994995516
F0.0006699167760669725
tp519
sI1050
(F0.0494848005474
F0.000625618364781438
tp520
sI1950
(F0.00339402002282
F0.0006659742679190068
tp521
sI1700
(F0.00642145983875
F0.0006722567933774262
tp522
sI1450
(F0.0132619002834
F0.0006598232389782832
tp523
sI2350
(F0.00124482996762
F0.0006703863352482745
tp524
sI1200
(F0.0290532000363
F0.0006476635956276696
tp525
sI2100
(F0.00227899011225
F0.0006679625294631421
tp526
sI1850
(F0.00438005989417
F0.0006699611582722587
tp527
sI1600
(F0.00885138008744
F0.0006497879362520355
tp528
sI2500
(F0.000863801978994
F0.0006690375966411328
tp529
sI1350
(F0.0181523002684
F0.0006487717713936888
tp530
sI2250
(F0.00160085002426
F0.0006678826772009658
tp531
sI1100
(F0.0411542989314
F0.000634504794833877
tp532
sI2000
(F0.0028141499497
F0.0006874153952621554
tp533
sI1750
(F0.00583116011694
F0.000656121581859037
tp534
sI1500
(F0.0111319003627
F0.000675278232384102
tp535
sI2400
(F0.00107587000821
F0.0006778634913462971
tp536
sI1250
(F0.024682899937
F0.0006498952732840712
tp537
sI2150
(F0.00191506999545
F0.0006850350134025959
tp538
sI1000
(F0.0582056008279
F0.0006342671405309839
tp539
sI1900
(F0.00369921000674
F0.0006824159740594657
tp540
sI1650
(F0.00754129979759
F0.0006612441003331546
tp541
sI1400
(F0.0158518999815
F0.0006423457132509917
tp542
sI2300
(F0.00141182995867
F0.0006737504004349703
tp543
sI1150
(F0.0343436002731
F0.0006443704161480578
tp544
ssI1100
(dp545
I2050
(F0.000291698990623
F0.0007111440446089898
tp546
sI1800
(F0.000517271982972
F0.0006922238431370488
tp547
sI1550
(F0.000882515974808
F0.0007157139564951411
tp548
sI2450
(F0.000122351993923
F0.0007212526512280335
tp549
sI1300
(F0.0016298800474
F0.0006952045347186941
tp550
sI2200
(F0.000208284996916
F0.0007195909557539838
tp551
sI1050
(F0.00279723992571
F0.0007469541603477802
tp552
sI1950
(F0.00035896099871
F0.0007181253699604739
tp553
sI1700
(F0.000643326027784
F0.000697725539795366
tp554
sI1450
(F0.00117154000327
F0.0006789908989703295
tp555
sI2350
(F0.000151754997205
F0.0007192712069477975
tp556
sI1200
(F0.00210316991434
F0.0006850468857396768
tp557
sI2100
(F0.000261497014435
F0.0007091706205544313
tp558
sI1850
(F0.000450210005511
F0.0007124297462824008
tp559
sI1600
(F0.000812394020613
F0.0006925063278721495
tp560
sI2500
(F0.000109656997665
F0.0007258761565145939
tp561
sI1350
(F0.00143679999746
F0.0007001183197232047
tp562
sI2250
(F0.000187384997844
F0.0007198388427674177
tp563
sI1100
(F0.00273268995807
F0.0006736878417411895
tp564
sI2000
(F0.000324330001604
F0.0007100021547841906
tp565
sI1750
(F0.000571226992179
F0.0007031723036542576
tp566
sI1500
(F0.00103547994513
F0.000683417388553243
tp567
sI2400
(F0.000135961003252
F0.0007216966457516678
tp568
sI1250
(F0.00185004004743
F0.0006902391122689017
tp569
sI2150
(F0.000234879000345
F0.00071005496342811
tp570
sI1000
(F0.00318864011206
F0.0007432102453446798
tp571
sI1900
(F0.000402059988119
F0.0007165547642475927
tp572
sI1650
(F0.000720352982171
F0.0006975691257438504
tp573
sI1400
(F0.00131961004809
F0.0006763945161617355
tp574
sI2300
(F0.000169279999682
F0.0007163752376406387
tp575
sI1150
(F0.00216966005974
F0.0007486287968054514
tp576
ssI850
(dp577
I2050
(F0.000520815025084
F0.0007029347894503495
tp578
sI1800
(F0.000918429985177
F0.0007002493498467995
tp579
sI1550
(F0.00162273005117
F0.0007133965376220932
tp580
sI2450
(F0.000213542007259
F0.0007182427568641102
tp581
sI1300
(F0.00310123991221
F0.0006882537502488673
tp582
sI2200
(F0.000368590001017
F0.0007146802660765897
tp583
sI1050
(F0.00615245010704
F0.0006628091132886756
tp584
sI1950
(F0.000642377010081
F0.000714177177576999
tp585
sI1700
(F0.00121142005082
F0.0006717537813982539
tp586
sI1450
(F0.00221672002226
F0.0006645719735494911
tp587
sI2350
(F0.000266852002824
F0.0007121400551201283
tp588
sI1200
(F0.0040635401383
F0.0006784896681624591
tp589
sI2100
(F0.000463303003926
F0.0007061167253995457
tp590
sI1850
(F0.00081841298379
F0.0007024302050265498
tp591
sI1600
(F0.00143367005512
F0.0007171943058501955
tp592
sI2500
(F0.000192924999283
F0.0007124996786878956
tp593
sI1350
(F0.00271205999888
F0.0006943577947308248
tp594
sI2250
(F0.000333859003149
F0.0007072955881756256
tp595
sI1100
(F0.00535706011578
F0.00066635242518279
tp596
sI2000
(F0.000585514004342
F0.0007000310786086499
tp597
sI1750
(F0.00103047001176
F0.0007017283295463961
tp598
sI1500
(F0.00185478001367
F0.0007043045484489573
tp599
sI2400
(F0.00023844599491
F0.000714983701296172
tp600
sI1250
(F0.00354035990313
F0.0006836960270225724
tp601
sI2150
(F0.000413897010731
F0.0007108145078902468
tp602
sI1000
(F0.0070829000324
F0.0006575879906103642
tp603
sI1900
(F0.00072240200825
F0.0007104963637121782
tp604
sI1650
(F0.00132750999182
F0.0006885869075431755
tp605
sI1400
(F0.00237996992655
F0.0006999794331077658
tp606
sI2300
(F0.000295478006592
F0.0007155997918043515
tp607
sI1150
(F0.00467285979539
F0.0006696541597689505
tp608
ssI600
(dp609
I2050
(F0.000947478984017
F0.0006935478370338288
tp610
sI1800
(F0.00170264998451
F0.000695292638399015
tp611
sI1550
(F0.00304504996166
F0.0007189701409058357
tp612
sI2450
(F0.000382953003282
F0.0006999762312938611
tp613
sI1300
(F0.00653136987239
F0.000639855050571611
tp614
sI2200
(F0.00066144799348
F0.0007072528824809944
tp615
sI1050
(F0.0129428999498
F0.0006464895836677853
tp616
sI1950
(F0.00121150002815
F0.0006854890472170725
tp617
sI1700
(F0.00220169988461
F0.0006868738153510332
tp618
sI1450
(F0.00432896986604
F0.0006531946600466061
tp619
sI2350
(F0.000475287990412
F0.0007016482779439071
tp620
sI1200
(F0.00730266980827
F0.0007500681454605734
tp621
sI2100
(F0.000857419974636
F0.0006867568022893092
tp622
sI1850
(F0.00150062004104
F0.000700610395201283
tp623
sI1600
(F0.00268996995874
F0.000716665996115064
tp624
sI2500
(F0.000337667996064
F0.0007099162573718278
tp625
sI1350
(F0.00526044983417
F0.0006946782338390236
tp626
sI2250
(F0.000590538023971
F0.0007065133540333871
tp627
sI1100
(F0.0101631004363
F0.0007133797452305318
tp628
sI2000
(F0.00107148999814
F0.00069017163135794
tp629
sI1750
(F0.00182980997488
F0.0007289390801837074
tp630
sI1500
(F0.00350312003866
F0.0007082258023190729
tp631
sI2400
(F0.00041770801181
F0.0007152675829830644
tp632
sI1250
(F0.00667183008045
F0.0007172065148993207
tp633
sI2150
(F0.000745458994061
F0.000701907152732245
tp634
sI1000
(F0.0150736002252
F0.0006428152435541614
tp635
sI1900
(F0.00132459995802
F0.0007041303258035566
tp636
sI1650
(F0.00251173996367
F0.0006790472041970048
tp637
sI1400
(F0.00483903987333
F0.0006634373933750526
tp638
sI2300
(F0.000533994985744
F0.0006991975766959628
tp639
sI1150
(F0.00924243032932
F0.0006798428309561619
tp640
ssI1500
(dp641
I2050
(F0.000117846000649
F0.0007279101499209673
tp642
sI1800
(F0.000202301001991
F0.0007204116567177641
tp643
sI1550
(F0.000347141001839
F0.0007184141276277836
tp644
sI2450
(F5.09306009917e-05
F0.0007310516521504965
tp645
sI1300
(F0.000610666989814
F0.0007099303011810857
tp646
sI2200
(F8.5903397121e-05
F0.0007290899091194278
tp647
sI1050
(F0.00112152996007
F0.0006844498384618173
tp648
sI1950
(F0.000146178994328
F0.0007228466749668991
tp649
sI1700
(F0.000248235010076
F0.0007242773690341056
tp650
sI1450
(F0.000444094999693
F0.0006995935559165836
tp651
sI2350
(F6.32242008578e-05
F0.0007250862704157743
tp652
sI1200
(F0.000779837020673
F0.0006989486079150328
tp653
sI2100
(F0.000106421000964
F0.0007239369983567598
tp654
sI1850
(F0.000183580996236
F0.000712029037210154
tp655
sI1600
(F0.00030898899422
F0.0007244141512711254
tp656
sI2500
(F4.58879985672e-05
F0.0007331394057366226
tp657
sI1350
(F0.00054633198306
F0.0007078351844496167
tp658
sI2250
(F7.72123967181e-05
F0.0007294307960109895
tp659
sI1100
(F0.000930353009608
F0.0007351220374814156
tp660
sI2000
(F0.000132026005303
F0.0007196317102979189
tp661
sI1750
(F0.000225629002671
F0.0007156260856918335
tp662
sI1500
(F0.000387667008908
F0.0007174920578965471
tp663
sI2400
(F5.66656999581e-05
F0.000729691859988919
tp664
sI1250
(F0.000654847011901
F0.0007416602522016614
tp665
sI2150
(F9.46583022596e-05
F0.0007335616458614205
tp666
sI1000
(F0.00118187000044
F0.0007307969570921076
tp667
sI1900
(F0.000162276002811
F0.0007241859422484736
tp668
sI1650
(F0.000282441003947
F0.0007126266979201407
tp669
sI1400
(F0.000501594971865
F0.000693384143598646
tp670
sI2300
(F6.98994990671e-05
F0.0007259565615955032
tp671
sI1150
(F0.000879025028553
F0.0006938368990516481
tp672
ssI350
(dp673
I2050
(F0.00169381999876
F0.0007144088515225153
tp674
sI1800
(F0.00324697000906
F0.000691626345095232
tp675
sI1550
(F0.00610157009214
F0.0007031927741889085
tp676
sI2450
(F0.000678577984218
F0.0007041195133240602
tp677
sI1300
(F0.0133518995717
F0.0006443704847987087
tp678
sI2200
(F0.00124561996199
F0.0006867985630490948
tp679
sI1050
(F0.0296739991754
F0.0006223697685922394
tp680
sI1950
(F0.00228275009431
F0.0006769773020060325
tp681
sI1700
(F0.00426803994924
F0.0006795531519137866
tp682
sI1450
(F0.00847147032619
F0.0006663388742032874
tp683
sI2350
(F0.000861594977323
F0.0006992345775643342
tp684
sI1200
(F0.017742600292
F0.0006518943001390362
tp685
sI2100
(F0.00159562996123
F0.000677813795352833
tp686
sI1850
(F0.00300178001635
F0.0006613376027514109
tp687
sI1600
(F0.00557617982849
F0.0006745388627501552
tp688
sI2500
(F0.000593004981056
F0.0007151778038099651
tp689
sI1350
(F0.0113017996773
F0.0006601258395142905
tp690
sI2250
(F0.00107166997623
F0.0007054541199890306
tp691
sI1100
(F0.0251331999898
F0.0006253561029386879
tp692
sI2000
(F0.00200674007647
F0.0006848968713564968
tp693
sI1750
(F0.00392781989649
F0.0006514428022238402
tp694
sI1500
(F0.00734138023108
F0.0006691902401678593
tp695
sI2400
(F0.000776549975853
F0.0006938111090766297
tp696
sI1250
(F0.0152524001896
F0.0006537777579950524
tp697
sI2150
(F0.00141262996476
F0.0006812215682848645
tp698
sI1000
(F0.0340747013688
F0.0006359175320562201
tp699
sI1900
(F0.00249189999886
F0.000702183073478265
tp700
sI1650
(F0.00506989005953
F0.000650850405285889
tp701
sI1400
(F0.00966165028512
F0.0006705997224903207
tp702
sI2300
(F0.000953654001933
F0.000705698291661216
tp703
sI1150
(F0.0215528998524
F0.000624124832023571
tp704
ssI1250
(dp705
I2050
(F0.000204166004551
F0.000727207256303595
tp706
sI1800
(F0.000356625998393
F0.0007145216589599085
tp707
sI1550
(F0.00063833699096
F0.0006949714747579133
tp708
sI2450
(F8.83125030668e-05
F0.0007225919069662294
tp709
sI1300
(F0.00112372997683
F0.0006993005581436767
tp710
sI2200
(F0.000149041006807
F0.0007235189986312907
tp711
sI1050
(F0.0019258899847
F0.0007380016570476119
tp712
sI1950
(F0.000257773994235
F0.0007124807160825038
tp713
sI1700
(F0.000459455011878
F0.0006914670463630919
tp714
sI1450
(F0.000810489989817
F0.0006844649618994765
tp715
sI2350
(F0.000108722000732
F0.0007232501193004259
tp716
sI1200
(F0.00143804005347
F0.000690009987973329
tp717
sI2100
(F0.000185457000043
F0.0007185816656642833
tp718
sI1850
(F0.000318334001349
F0.0007163733658158172
tp719
sI1600
(F0.000549581018277
F0.0007211620977059257
tp720
sI2500
(F7.88047982496e-05
F0.0007306839339607378
tp721
sI1350
(F0.000994701054879
F0.0007030785747835288
tp722
sI2250
(F0.000135131005663
F0.0007192605392310245
tp723
sI1100
(F0.00170068000443
F0.0007409918366285287
tp724
sI2000
(F0.000233252998441
F0.000708342448347099
tp725
sI1750
(F0.000402067002142
F0.0007072477932411147
tp726
sI1500
(F0.000693487003446
F0.0007155058386593647
tp727
sI2400
(F9.76217997959e-05
F0.0007254516936592512
tp728
sI1250
(F0.00127092003822
F0.0006950154009981048
tp729
sI2150
(F0.000168133003172
F0.0007130247942895526
tp730
sI1000
(F0.00218527996913
F0.0007353016650949822
tp731
sI1900
(F0.000289977004286
F0.000708583773757953
tp732
sI1650
(F0.000503990973812
F0.0007016494706746676
tp733
sI1400
(F0.000880601000972
F0.0007081402352616993
tp734
sI2300
(F0.00012111900287
F0.0007215473866953905
tp735
sI1150
(F0.00163318996783
F0.0006844212994310725
tp736
ssI100
(dp737
I2050
(F5.22100016553e-08
F0.0007051235171961126
tp738
sI1800
(F1.46299996118e-07
F0.0007613602389309669
tp739
sI1550
(F4.11503009445e-07
F0.0008071046684395895
tp740
sI2450
(F9.62099999668e-09
F0.0006358143646305897
tp741
sI1300
(F1.06500999664e-06
F0.0009184139145039679
tp742
sI2200
(F2.73600004874e-08
F0.0006885891690197967
tp743
sI1050
(F3.3150499803e-06
F0.0008616491506838474
tp744
sI1950
(F7.77300002142e-08
F0.0007370410374646316
tp745
sI1700
(F2.18300002075e-07
F0.0007908520309618967
tp746
sI1450
(F6.28704981409e-07
F0.0008166596657932097
tp747
sI2350
(F1.47600003331e-08
F0.0006503868416907956
tp748
sI1200
(F1.62602998444e-06
F0.000923593054476921
tp749
sI2100
(F4.17700007915e-08
F0.0007039262495293841
tp750
sI1850
(F1.16199998956e-07
F0.0007687401101769766
tp751
sI1600
(F3.33000997443e-07
F0.0008042918851792467
tp752
sI2500
(F7.77700037702e-09
F0.0006269885256027756
tp753
sI1350
(F9.75010948423e-07
F0.0008097683428857948
tp754
sI2250
(F2.23200000704e-08
F0.0006731137971600712
tp755
sI1100
(F2.4610399123e-06
F0.0009370225929594322
tp756
sI2000
(F6.43000035438e-08
F0.0007152363524937079
tp757
sI1750
(F1.76800000418e-07
F0.0007848699076466311
tp758
sI1500
(F5.26204019025e-07
F0.0007859860150181605
tp759
sI2400
(F1.19330003656e-08
F0.0006415972316627882
tp760
sI1250
(F1.4170200302e-06
F0.0008572779312290628
tp761
sI2150
(F3.4189998388e-08
F0.0006882685320119588
tp762
sI1000
(F3.73707007384e-06
F0.0009463215647883544
tp763
sI1900
(F9.40099980085e-08
F0.0007617413202532479
tp764
sI1650
(F2.62100002146e-07
F0.0008210759184966466
tp765
sI1400
(F7.06906973846e-07
F0.0008988947959345352
tp766
sI2300
(F1.77199996898e-08
F0.0006777370321802499
tp767
sI1150
(F2.16202988668e-06
F0.0008615884597508842
tp768
ssI1000
(dp769
I2050
(F0.000364940002328
F0.0007124102546761357
tp770
sI1800
(F0.000640350976028
F0.000707750931858005
tp771
sI1550
(F0.00117248005699
F0.0006851101604765727
tp772
sI2450
(F0.000152385997353
F0.00072198234687627
tp773
sI1300
(F0.00210305000655
F0.0006925845773821692
tp774
sI2200
(F0.000261428009253
F0.0007175321440728424
tp775
sI1050
(F0.00408913008869
F0.0006633269035637256
tp776
sI1950
(F0.000452303007478
F0.0007166567425837124
tp777
sI1700
(F0.000812395999674
F0.0006990790208567001
tp778
sI1450
(F0.00150559004396
F0.0006736229454151099
tp779
sI2350
(F0.000189696002053
F0.0007165675529736358
tp780
sI1200
(F0.00272831995972
F0.000680085190664523
tp781
sI2100
(F0.000327743007801
F0.000712134185763361
tp782
sI1850
(F0.000584202003665
F0.0006931968693353215
tp783
sI1600
(F0.00103646004573
F0.0006894544588997623
tp784
sI2500
(F0.000136682996526
F0.0007233664940993042
tp785
sI1350
(F0.00184688996524
F0.0006969554354759465
tp786
sI2250
(F0.000236812993535
F0.0007100201618588522
tp787
sI1100
(F0.00357476994395
F0.0006702417323539835
tp788
sI2000
(F0.000411674991483
F0.000704094263671029
tp789
sI1750
(F0.000721383024938
F0.0007016009283604909
tp790
sI1500
(F0.00126964005176
F0.0007104430887711995
tp791
sI2400
(F0.000171673993464
F0.000712268629235573
tp792
sI1250
(F0.0021654299926
F0.000760583350941068
tp793
sI2150
(F0.000292229990009
F0.0007149197794297763
tp794
sI1000
(F0.00411792006344
F0.0007473044528769391
tp795
sI1900
(F0.000517063017469
F0.0007008913570611877
tp796
sI1650
(F0.000917424971703
F0.0006941417768669154
tp797
sI1400
(F0.00171066995244
F0.0006679196056318614
tp798
sI2300
(F0.000212004000787
F0.0007134016312831499
tp799
sI1150
(F0.00311952992342
F0.0006746817795203543
tp800
ssI750
(dp801
I2050
(F0.000663369020913
F0.0006969408962807654
tp802
sI1800
(F0.00116551003885
F0.000704291659992852
tp803
sI1550
(F0.00220567011274
F0.0006715600811945198
tp804
sI2450
(F0.000269473006483
F0.0007076478734875807
tp805
sI1300
(F0.00354472990148
F0.0007816279595359835
tp806
sI2200
(F0.000473913998576
F0.0006971665766210013
tp807
sI1050
(F0.00740326009691
F0.0007294056847001585
tp808
sI1950
(F0.000815448991489
F0.0007113565729485913
tp809
sI1700
(F0.00143067003228
F0.0007236189873566784
tp810
sI1450
(F0.0024222698994
F0.0007841446572367872
tp811
sI2350
(F0.000335099000949
F0.0007092083215018884
tp812
sI1200
(F0.00532080000266
F0.00067780784810499
tp813
sI2100
(F0.000586760987062
F0.0007041606533331807
tp814
sI1850
(F0.00107042002492
F0.0006812989135311664
tp815
sI1600
(F0.00183676998131
F0.0007166275654511829
tp816
sI2500
(F0.000238983993768
F0.0007155290917349166
tp817
sI1350
(F0.00352821010165
F0.0006938702428336437
tp818
sI2250
(F0.000421308999648
F0.0007009083600082593
tp819
sI1100
(F0.00702229002491
F0.000667114286562102
tp820
sI2000
(F0.000747381011024
F0.0006917408823267497
tp821
sI1750
(F0.00132553000003
F0.0006943464123627301
tp822
sI1500
(F0.0023759000469
F0.0007070120656766421
tp823
sI2400
(F0.000294314988423
F0.000722810622523414
tp824
sI1250
(F0.00475755007938
F0.0006651154369797767
tp825
sI2150
(F0.000509992998559
F0.0007256668249283537
tp826
sI1000
(F0.00938322022557
F0.0006616374603552339
tp827
sI1900
(F0.000924466992728
F0.0007037676900503735
tp828
sI1650
(F0.00170658994466
F0.0006854019055134165
tp829
sI1400
(F0.00329590006731
F0.0006541703194780775
tp830
sI2300
(F0.000369729998056
F0.00071466746379605
tp831
sI1150
(F0.00610195985064
F0.0006746750389660805
tp832
ssI500
(dp833
I2050
(F0.00121155998204
F0.0006911370566978289
tp834
sI1800
(F0.00218176003546
F0.0006988852922491601
tp835
sI1550
(F0.00397920003161
F0.0007158423746914512
tp836
sI2450
(F0.000475442007883
F0.0007062333458818585
tp837
sI1300
(F0.00838156975806
F0.0006625023903977212
tp838
sI2200
(F0.000840526015963
F0.0007028991236197586
tp839
sI1050
(F0.0180431008339
F0.000629398466734908
tp840
sI1950
(F0.00150668004062
F0.0007036132233913179
tp841
sI1700
(F0.0028518200852
F0.0006820626624009443
tp842
sI1450
(F0.00521341012791
F0.0007095816191777387
tp843
sI2350
(F0.000609426002484
F0.0006910453414909166
tp844
sI1200
(F0.0107525000349
F0.0006815652151791094
tp845
sI2100
(F0.00110048998613
F0.0006789466595943536
tp846
sI1850
(F0.0020096199587
F0.0006688976162784365
tp847
sI1600
(F0.00347913010046
F0.0007200765500746192
tp848
sI2500
(F0.000423933990533
F0.0007088650750136239
tp849
sI1350
(F0.00689171999693
F0.0007007742627604397
tp850
sI2250
(F0.000763470015954
F0.0006919040551185544
tp851
sI1100
(F0.0154627999291
F0.0006329280625032077
tp852
sI2000
(F0.0013306599576
F0.000706934927009184
tp853
sI1750
(F0.00251579005271
F0.0006843098843425032
tp854
sI1500
(F0.00492803985253
F0.0006591058711370733
tp855
sI2400
(F0.000535248022061
F0.0007025658844137558
tp856
sI1250
(F0.00956195034087
F0.000665694735183162
tp857
sI2150
(F0.000967485015281
F0.0006860478348672104
tp858
sI1000
(F0.0209139995277
F0.000631772989307946
tp859
sI1900
(F0.00176060001832
F0.0006793422626118651
tp860
sI1650
(F0.00306805991568
F0.0007194481400832666
tp861
sI1400
(F0.00632124021649
F0.0006685713333556379
tp862
sI2300
(F0.000665501982439
F0.000705724419150095
tp863
sI1150
(F0.0132724000141
F0.0006372231089339647
tp864
ssI1400
(dp865
I2050
(F0.000149009007146
F0.0007141179049380471
tp866
sI1800
(F0.000253614998655
F0.0007173589928231684
tp867
sI1550
(F0.000435547990492
F0.0007195533140813709
tp868
sI2450
(F6.31817965768e-05
F0.0007302039907003964
tp869
sI1300
(F0.000775670981966
F0.0007067042763551879
tp870
sI2200
(F0.000106922998384
F0.0007263928357215081
tp871
sI1050
(F0.00143847998697
F0.0006809208392695058
tp872
sI1950
(F0.000181758994586
F0.0007250810354677827
tp873
sI1700
(F0.000316941004712
F0.0007113816030364323
tp874
sI1450
(F0.000548441021238
F0.0007156904476510077
tp875
sI2350
(F7.79863985372e-05
F0.0007285372970890355
tp876
sI1200
(F0.00093704398023
F0.0007362962833725819
tp877
sI2100
(F0.000134521003929
F0.0007125809145060592
tp878
sI1850
(F0.000230570003623
F0.0007091902564540214
tp879
sI1600
(F0.000406820996432
F0.0006902716488649535
tp880
sI2500
(F5.70119009353e-05
F0.00073080881914959
tp881
sI1350
(F0.000693538982887
F0.0007063164610601473
tp882
sI2250
(F9.61070982157e-05
F0.0007279743255069042
tp883
sI1100
(F0.00127025996335
F0.0006865689112171922
tp884
sI2000
(F0.000165129997185
F0.0007174468722801003
tp885
sI1750
(F0.000282913009869
F0.0007144139468651097
tp886
sI1500
(F0.000488408026285
F0.0007164235253493139
tp887
sI2400
(F7.03007972334e-05
F0.0007282890381743089
tp888
sI1250
(F0.000879738014191
F0.0006993479764151973
tp889
sI2150
(F0.000119112002722
F0.0007244265735451581
tp890
sI1000
(F0.00150699994992
F0.0007322428909560212
tp891
sI1900
(F0.000202554001589
F0.0007217630797373463
tp892
sI1650
(F0.000355347001459
F0.0007087072606944651
tp893
sI1400
(F0.000615521974396
F0.0007119437131875169
tp894
sI2300
(F8.67976996233e-05
F0.0007271506073768964
tp895
sI1150
(F0.0011220399756
F0.000691536858644522
tp896
ssI250
(dp897
I2050
(F0.00227989000268
F0.0006867436578780235
tp898
sI1800
(F0.00431316997856
F0.0006807730774803161
tp899
sI1550
(F0.00856142956764
F0.0006672588911544046
tp900
sI2450
(F0.000863722001668
F0.0006936965815886525
tp901
sI1300
(F0.0182323008776
F0.0006428206773616369
tp902
sI2200
(F0.00155283999629
F0.0006953388646478111
tp903
sI1050
(F0.0410946011543
F0.000630949060745098
tp904
sI1950
(F0.0029689099174
F0.0006791011031300211
tp905
sI1700
(F0.00524357985705
F0.0007178035049737032
tp906
sI1450
(F0.0115416999906
F0.000656256011347445
tp907
sI2350
(F0.00107680005021
F0.0007015824338535903
tp908
sI1200
(F0.0248629990965
F0.0006406266572338891
tp909
sI2100
(F0.00192897999659
F0.000704781803027147
tp910
sI1850
(F0.00342034990899
F0.0007324543004840632
tp911
sI1600
(F0.00728145986795
F0.0006820363072876723
tp912
sI2500
(F0.000764705997426
F0.000699933048520121
tp913
sI1350
(F0.0155121004209
F0.0006517041358486426
tp914
sI2250
(F0.00141175999306
F0.0006844860349849358
tp915
sI1100
(F0.034583799541
F0.0006356733583867034
tp916
sI2000
(F0.00259690009989
F0.0006812660987902228
tp917
sI1750
(F0.00509802019224
F0.000660389695028008
tp918
sI1500
(F0.010071599856
F0.0006526857792194639
tp919
sI2400
(F0.000973730988335
F0.0006939103387839804
tp920
sI1250
(F0.0211625993252
F0.0006449066010406554
tp921
sI2150
(F0.00182177999523
F0.0006787098350170965
tp922
sI1000
(F0.0479553006589
F0.0006396665139937344
tp923
sI1900
(F0.00338193005882
F0.0006762292419488859
tp924
sI1650
(F0.00633137021214
F0.0006860726595439132
tp925
sI1400
(F0.0137117002159
F0.000638277519359079
tp926
sI2300
(F0.00124474999029
F0.0006907603990418023
tp927
sI1150
(F0.0289734005928
F0.0006448362849282808
tp928
ssI1150
(dp929
I2050
(F0.0002612840035
F0.0007113332523626919
tp930
sI1800
(F0.000450083985925
F0.0007106184845538947
tp931
sI1550
(F0.000782466027886
F0.0007153090102993522
tp932
sI2450
(F0.000108651998744
F0.0007286198221399191
tp933
sI1300
(F0.00143784994725
F0.0006964774049721342
tp934
sI2200
(F0.000188556005014
F0.0007133583467151469
tp935
sI1050
(F0.00273381010629
F0.000671798672400247
tp936
sI1950
(F0.000326520006638
F0.0007062109374989949
tp937
sI1700
(F0.000571133976337
F0.0006998708123856101
tp938
sI1450
(F0.001035519992
F0.0006811515040262014
tp939
sI2350
(F0.000135139998747
F0.0007236199563911189
tp940
sI1200
(F0.00185112003237
F0.0006865140983715473
tp941
sI2100
(F0.000232691003475
F0.000715786160670774
tp942
sI1850
(F0.000410323991673
F0.0006996641820271386
tp943
sI1600
(F0.000720372016076
F0.0006947826801023271
tp944
sI2500
(F9.88273022813e-05
F0.0007222548663407781
tp945
sI1350
(F0.00127070001327
F0.0007008034868185549
tp946
sI2250
(F0.00016885799414
F0.0007153644138390569
tp947
sI1100
(F0.00239850999787
F0.000675469354490392
tp948
sI2000
(F0.000290511001367
F0.0007099455753121376
tp949
sI1750
(F0.000506183016114
F0.0007069616889702327
tp950
sI1500
(F0.000916421005968
F0.000685768872502192
tp951
sI2400
(F0.000121753997519
F0.0007229914564921219
tp952
sI1250
(F0.00150015996769
F0.0007517131667874443
tp953
sI2150
(F0.000206675002119
F0.0007206967387097791
tp954
sI1000
(F0.00281048007309
F0.000738855976913914
tp955
sI1900
(F0.000363708008081
F0.0007052305539087178
tp956
sI1650
(F0.000639347010292
F0.0006990851490740016
tp957
sI1400
(F0.00112366001122
F0.0007053993130354553
tp958
sI2300
(F0.000151250002091
F0.0007174942049568239
tp959
sI1150
(F0.00210531009361
F0.0006820990429669306
tp960
ss.