(dp0
I900
(dp1
I2050
(F0.000334621718859
F0.08426245582965583
tp2
sI1800
(F0.000627341714158
F0.07368885175513319
tp3
sI1550
(F0.00116663461422
F0.06520822276027051
tp4
sI2450
(F0.000130022152785
F0.11060190791548738
tp5
sI1300
(F0.00195194443924
F0.05988525386742709
tp6
sI2200
(F0.000231811365719
F0.09239348995019757
tp7
sI1050
(F0.00390169710542
F0.055035898003129316
tp8
sI1950
(F0.000428943988312
F0.07993176338506297
tp9
sI1700
(F0.000787349911704
F0.0697603875321816
tp10
sI1450
(F0.00144656781859
F0.0620394956336549
tp11
sI2350
(F0.000163918430704
F0.1026517556032788
tp12
sI1200
(F0.00255135338354
F0.05773885389941728
tp13
sI2100
(F0.000295831700355
F0.08757372312774908
tp14
sI1850
(F0.000552260719069
F0.07521199892837276
tp15
sI1600
(F0.0010215994862
F0.06667410560028922
tp16
sI2500
(F0.00011542858229
F0.11518089035432785
tp17
sI1350
(F0.00189494605355
F0.05930130878527141
tp18
sI2250
(F0.000208646435433
F0.09634819663887968
tp19
sI1100
(F0.00339962201485
F0.05532269507741095
tp20
sI2000
(F0.000369809641765
F0.08152786453782902
tp21
sI1750
(F0.000692302789629
F0.07136660725443128
tp22
sI1500
(F0.0012667563981
F0.06343369657222495
tp23
sI2400
(F0.000147043553504
F0.10659540246811036
tp24
sI1250
(F0.00250004266677
F0.05706133334528571
tp25
sI2150
(F0.000256436846867
F0.08929090627906407
tp26
sI1000
(F0.0049849522988
F0.05116993802697047
tp27
sI1900
(F0.000473800380583
F0.07714334819956334
tp28
sI1650
(F0.000896430958447
F0.06823995450623063
tp29
sI1400
(F0.00175082432081
F0.06125498378808415
tp30
sI2300
(F0.000184860640962
F0.09928102627358454
tp31
sI1150
(F0.00332793059378
F0.05488905520037284
tp32
ssI650
(dp33
I2050
(F0.000611148306449
F0.07291035674745575
tp34
sI1800
(F0.00116448127654
F0.06469929476655868
tp35
sI1550
(F0.0021524338256
F0.05803780375602364
tp36
sI2450
(F0.000237653171793
F0.09194456322608026
tp37
sI1300
(F0.00445889945174
F0.052026108723639095
tp38
sI2200
(F0.000438713920936
F0.07964118267538867
tp39
sI1050
(F0.00866102095399
F0.04805637548899533
tp40
sI1950
(F0.000787985472718
F0.06926215925357793
tp41
sI1700
(F0.00158681354763
F0.0625452564225534
tp42
sI1450
(F0.00283981053609
F0.055611445544335766
tp43
sI2350
(F0.000303456204537
F0.08696898724699546
tp44
sI1200
(F0.00556945538595
F0.05130424676905118
tp45
sI2100
(F0.000554289522594
F0.0748736990709794
tp46
sI1850
(F0.0010590697699
F0.06651708371106817
tp47
sI1600
(F0.00187956959463
F0.059058424016404466
tp48
sI2500
(F0.000210468978761
F0.09539536797249105
tp49
sI1350
(F0.00386778761358
F0.05334619259329512
tp50
sI2250
(F0.000380936527793
F0.08134423213422645
tp51
sI1100
(F0.00847528147131
F0.04795780879654671
tp52
sI2000
(F0.000715628068059
F0.07108714871760152
tp53
sI1750
(F0.00132221738705
F0.06327800289109048
tp54
sI1500
(F0.00264529732632
F0.05743732738065001
tp55
sI2400
(F0.000268378925186
F0.08915670995036905
tp56
sI1250
(F0.00501768000745
F0.05083560909509469
tp57
sI2150
(F0.000488806120008
F0.07697681953671977
tp58
sI1000
(F0.0111216303427
F0.045201593222883155
tp59
sI1900
(F0.000896427418471
F0.06776388984744686
tp60
sI1650
(F0.00174246542044
F0.060678637092437336
tp61
sI1400
(F0.00326984705977
F0.054261255233594964
tp62
sI2300
(F0.000343355273432
F0.08420958284138966
tp63
sI1150
(F0.00678425550849
F0.0488807899367885
tp64
ssI400
(dp65
I2050
(F0.00116104831037
F0.06431637659892286
tp66
sI1800
(F0.00227711643464
F0.05744136520391805
tp67
sI1550
(F0.00428936089534
F0.05281677641933235
tp68
sI2450
(F0.000450953699047
F0.07881615317850102
tp69
sI1300
(F0.00926637971854
F0.04685370341303113
tp70
sI2200
(F0.000792474972718
F0.06878001356819625
tp71
sI1050
(F0.0212848140437
F0.040808303145269544
tp72
sI1950
(F0.00151316188799
F0.061645981416838636
tp73
sI1700
(F0.00301733367637
F0.05541337241135045
tp74
sI1450
(F0.00567582738381
F0.05068063035435493
tp75
sI2350
(F0.000556161845537
F0.07455305877476187
tp76
sI1200
(F0.0131035217318
F0.04396842097691983
tp77
sI2100
(F0.00105770951692
F0.06594099275933364
tp78
sI1850
(F0.00198387242937
F0.05877418417424539
tp79
sI1600
(F0.00379428994419
F0.05337273521205084
tp80
sI2500
(F0.000390958141349
F0.0812684554414671
tp81
sI1350
(F0.00826113703085
F0.047320827842360254
tp82
sI2250
(F0.000716716769275
F0.07086324549162684
tp83
sI1100
(F0.0178224797025
F0.04208568860649541
tp84
sI2000
(F0.00137314970085
F0.06319567036047394
tp85
sI1750
(F0.0026182875725
F0.05648775791605679
tp86
sI1500
(F0.0053200070828
F0.05115098536312046
tp87
sI2400
(F0.00050185329959
F0.07658973136990788
tp88
sI1250
(F0.0111675840489
F0.045023256987219686
tp89
sI2150
(F0.000955232283832
F0.06784782109468405
tp90
sI1000
(F0.0252326909312
F0.0394618168804894
tp91
sI1900
(F0.00181213593161
F0.06058896517517412
tp92
sI1650
(F0.00348380648015
F0.05425051172758093
tp93
sI1400
(F0.00662155598722
F0.04955900353970639
tp94
sI2300
(F0.000646995197266
F0.07296412524819955
tp95
sI1150
(F0.0153169386882
F0.04284443635029788
tp96
ssI1300
(dp97
I2050
(F0.000125216149782
F0.11187902127952047
tp98
sI1800
(F0.000228539515283
F0.0929604813342331
tp99
sI1550
(F0.000414703219269
F0.08024851316795097
tp100
sI2450
(F4.96406425284e-05
F0.15639040945206364
tp101
sI1300
(F0.000755810461455
F0.0703994579166962
tp102
sI2200
(F8.78997018949e-05
F0.12504647513528983
tp103
sI1050
(F0.0013812278785
F0.06167831508897537
tp104
sI1950
(F0.000159003471831
F0.10397311749061339
tp105
sI1700
(F0.000292155430455
F0.08808490410163305
tp106
sI1450
(F0.000533624828246
F0.07602332669966821
tp107
sI2350
(F6.18928133264e-05
F0.1433900202283179
tp108
sI1200
(F0.000984057995505
F0.06707712245773284
tp109
sI2100
(F0.000112523444467
F0.11632831453927661
tp110
sI1850
(F0.0001987493042
F0.09608927805544487
tp111
sI1600
(F0.000366081750932
F0.08315383998601575
tp112
sI2500
(F4.42057464845e-05
F0.16381021191258602
tp113
sI1350
(F0.000664378090511
F0.07210728363446359
tp114
sI2250
(F7.89345232671e-05
F0.1310827960737507
tp115
sI1100
(F0.00129818473259
F0.0635586955374086
tp116
sI2000
(F0.000141063293049
F0.1075783898886343
tp117
sI1750
(F0.000246667328854
F0.09038783489157019
tp118
sI1500
(F0.000454983892485
F0.07803343129069235
tp119
sI2400
(F5.55898892507e-05
F0.14994030682432133
tp120
sI1250
(F0.00086156003658
F0.06883885315018658
tp121
sI2150
(F9.88316291e-05
F0.12109712583398062
tp122
sI1000
(F0.00161819425075
F0.05990117673856159
tp123
sI1900
(F0.000178504234297
F0.10004479817037111
tp124
sI1650
(F0.000314368956193
F0.08454490881212468
tp125
sI1400
(F0.000584701753686
F0.07394756858129682
tp126
sI2300
(F6.95536870942e-05
F0.13714083606482766
tp127
sI1150
(F0.00104405495039
F0.06482897003047274
tp128
ssI150
(dp129
I2050
(F0.00226674517691
F0.05772102474719191
tp130
sI1800
(F0.00479070000488
F0.051909630619884566
tp131
sI1550
(F0.00965362345994
F0.0463403146691388
tp132
sI2450
(F0.000838210097463
F0.06901051536885523
tp133
sI1300
(F0.022176107475
F0.04071792208758674
tp134
sI2200
(F0.00157221164173
F0.06131307580474876
tp135
sI1050
(F0.0524069419617
F0.035607569477413316
tp136
sI1950
(F0.00297567283713
F0.05483634033618437
tp137
sI1700
(F0.00619715854799
F0.04964832685615138
tp138
sI1450
(F0.0134574271859
F0.043908051869238685
tp139
sI2350
(F0.00111802528241
F0.06607523688619873
tp140
sI1200
(F0.0300446037124
F0.03861072200799996
tp141
sI2100
(F0.00206468265607
F0.05850020618708824
tp142
sI1850
(F0.00408888060057
F0.05320147549910731
tp143
sI1600
(F0.00831047376411
F0.04728066011132878
tp144
sI2500
(F0.00073688903921
F0.07017751029590594
tp145
sI1350
(F0.0185068119838
F0.041766351598514904
tp146
sI2250
(F0.00142253570805
F0.06325111340476625
tp147
sI1100
(F0.0431806736494
F0.03738146697515519
tp148
sI2000
(F0.00258618419488
F0.05669915875957315
tp149
sI1750
(F0.0053016436592
F0.05081506970833496
tp150
sI1500
(F0.0116294876111
F0.044815146966023844
tp151
sI2400
(F0.000978746079119
F0.0675462942339532
tp152
sI1250
(F0.0264172907487
F0.039487363073797924
tp153
sI2150
(F0.00180076883818
F0.06030702538742218
tp154
sI1000
(F0.0618070706882
F0.03526189733314914
tp155
sI1900
(F0.00341756864114
F0.05439713852272101
tp156
sI1650
(F0.00730687885218
F0.048255866623380814
tp157
sI1400
(F0.0157580944855
F0.04282115011113219
tp158
sI2300
(F0.0012438103566
F0.06436384252277579
tp159
sI1150
(F0.0365796611726
F0.0378133644462537
tp160
ssI1050
(dp161
I2050
(F0.000230596707831
F0.09271464748520511
tp162
sI1800
(F0.000417014430175
F0.07942366847233766
tp163
sI1550
(F0.000786565526009
F0.07007206892686695
tp164
sI2450
(F9.07269759187e-05
F0.12575450450948394
tp165
sI1300
(F0.00145222086492
F0.0622433304342308
tp166
sI2200
(F0.000160645668612
F0.10307854790716131
tp167
sI1050
(F0.0029364677807
F0.055426694117243575
tp168
sI1950
(F0.000294562418686
F0.0869180963349309
tp169
sI1700
(F0.000535854372569
F0.07553354346453184
tp170
sI1450
(F0.000976502835043
F0.06666770406553228
tp171
sI2350
(F0.000113868296453
F0.11570814267286665
tp172
sI1200
(F0.00190849161605
F0.05976234108958846
tp173
sI2100
(F0.000200566597544
F0.09571485888017095
tp174
sI1850
(F0.000368580407614
F0.08230619861262456
tp175
sI1600
(F0.000664459189257
F0.07165934172427187
tp176
sI2500
(F7.94477659595e-05
F0.13073925431578454
tp177
sI1350
(F0.00133585075649
F0.06440269788891198
tp178
sI2250
(F0.00014449199326
F0.10713330818023488
tp179
sI1100
(F0.00253419111331
F0.05725274993032921
tp180
sI2000
(F0.000260545522882
F0.08995995682533864
tp181
sI1750
(F0.000472581922449
F0.07755551627782659
tp182
sI1500
(F0.00089604615408
F0.068477797863883
tp183
sI2400
(F0.000100788269832
F0.12043759501907828
tp184
sI1250
(F0.00151310691979
F0.06166018634753759
tp185
sI2150
(F0.000180293522319
F0.09952341104164592
tp186
sI1000
(F0.00303017261311
F0.05586669968324166
tp187
sI1900
(F0.000333248327608
F0.08491305753463801
tp188
sI1650
(F0.000623129420767
F0.07365708745031653
tp189
sI1400
(F0.00111275851216
F0.06506228202439492
tp190
sI2300
(F0.000128227664413
F0.11119512047397521
tp191
sI1150
(F0.0021816578224
F0.057902090692680194
tp192
ssI800
(dp193
I2050
(F0.000430065375193
F0.07941937769454716
tp194
sI1800
(F0.00078769927772
F0.06961205504620428
tp195
sI1550
(F0.00144375973383
F0.06191001670886376
tp196
sI2450
(F0.00016455869361
F0.10259749604911803
tp197
sI1300
(F0.00286232144799
F0.05586413248354301
tp198
sI2200
(F0.000296709108042
F0.08651324923556591
tp199
sI1050
(F0.00567685887685
F0.050317923745094306
tp200
sI1950
(F0.000537853738619
F0.07481948834998474
tp201
sI1700
(F0.00102164419815
F0.0664809100103438
tp202
sI1450
(F0.00200649349839
F0.059728117092909726
tp203
sI2350
(F0.000206113680538
F0.09567622308003133
tp204
sI1200
(F0.00412839909305
F0.05486271888764241
tp205
sI2100
(F0.000385634639849
F0.08175280560129318
tp206
sI1850
(F0.000692834687569
F0.07161377505865517
tp207
sI1600
(F0.00133223961352
F0.06368536056590265
tp208
sI2500
(F0.000148665891298
F0.10633648731444205
tp209
sI1350
(F0.00266081074201
F0.05793458562240751
tp210
sI2250
(F0.00026721423845
F0.08967761816398821
tp211
sI1100
(F0.0050984087845
F0.05100892397891638
tp212
sI2000
(F0.000487533906374
F0.07715144071855663
tp213
sI1750
(F0.000896529437148
F0.06801594841044092
tp214
sI1500
(F0.00165008834439
F0.060483401575201635
tp215
sI2400
(F0.000185508952642
F0.09899304846672016
tp216
sI1250
(F0.00330177864989
F0.05452536274047256
tp217
sI2150
(F0.000335455477674
F0.08398244828685815
tp218
sI1000
(F0.00688890594215
F0.04841602568823948
tp219
sI1900
(F0.000628616742252
F0.07341890587683143
tp220
sI1650
(F0.00116597016216
F0.06501760707552068
tp221
sI1400
(F0.00230787813244
F0.05940159093238606
tp222
sI2300
(F0.000236397604336
F0.09226413299983892
tp223
sI1150
(F0.0046530325801
F0.05294407290690099
tp224
ssI550
(dp225
I2050
(F0.000814920901973
F0.0696491148523523
tp226
sI1800
(F0.0015178851791
F0.06172785297505511
tp227
sI1550
(F0.0030392550773
F0.05608071184154043
tp228
sI2450
(F0.000304300816785
F0.0862138520786028
tp229
sI1300
(F0.00575431883717
F0.05031696353036931
tp230
sI2200
(F0.000555233106147
F0.07486676924429392
tp231
sI1050
(F0.0128345789351
F0.04400599859769372
tp232
sI1950
(F0.00108552647869
F0.06688085486861078
tp233
sI1700
(F0.00187231770211
F0.05916097010254742
tp234
sI1450
(F0.00358894862021
F0.0546529739368414
tp235
sI2350
(F0.000389616152032
F0.08087168053754636
tp236
sI1200
(F0.007745907371
F0.04838848816334497
tp237
sI2100
(F0.000693738043493
F0.07087907697553876
tp238
sI1850
(F0.00138313676724
F0.06353843683561829
tp239
sI1600
(F0.00263462916119
F0.05702385441681728
tp240
sI2500
(F0.000269316436422
F0.08934142770364716
tp241
sI1350
(F0.00497568627576
F0.051407039032204796
tp242
sI2250
(F0.000498486142051
F0.07679285087404408
tp243
sI1100
(F0.0109565132905
F0.04519434732912214
tp244
sI2000
(F0.000950604014574
F0.06815678405548792
tp245
sI1750
(F0.00173851193883
F0.06056250518236771
tp246
sI1500
(F0.0032501186282
F0.054338681837533306
tp247
sI2400
(F0.00034987135007
F0.08377156024131725
tp248
sI1250
(F0.00721646886751
F0.04884465019006217
tp249
sI2150
(F0.000627076081798
F0.0730689155891931
tp250
sI1000
(F0.0150919436338
F0.04309678628194241
tp251
sI1900
(F0.00124188616155
F0.0652681290599409
tp252
sI1650
(F0.00228999890331
F0.058423756142248526
tp253
sI1400
(F0.00466734115281
F0.052302524850798594
tp254
sI2300
(F0.000447773895211
F0.07925638837337066
tp255
sI1150
(F0.00869499216742
F0.048328973459407815
tp256
ssI1450
(dp257
I2050
(F8.72229580649e-05
F0.12597353994259536
tp258
sI1800
(F0.000155396705961
F0.10428083279363047
tp259
sI1550
(F0.000275643229642
F0.08801549130159861
tp260
sI2450
(F3.44166985551e-05
F0.18066285840303586
tp261
sI1300
(F0.000516315843709
F0.07624869349039068
tp262
sI2200
(F6.13904351564e-05
F0.14378400633278102
tp263
sI1050
(F0.00102484283928
F0.0665160845155454
tp264
sI1950
(F0.000108913642122
F0.11680997882844817
tp265
sI1700
(F0.000201152274389
F0.09778124295707985
tp266
sI1450
(F0.000364940494121
F0.08333606635117981
tp267
sI2350
(F4.38199407555e-05
F0.16435421439966352
tp268
sI1200
(F0.000669990878081
F0.07224335170313809
tp269
sI2100
(F7.80308428634e-05
F0.13143740852004315
tp270
sI1850
(F0.000140098371597
F0.10804761871425021
tp271
sI1600
(F0.000245536599675
F0.09050267521588784
tp272
sI2500
(F3.08742826895e-05
F0.189894544581076
tp273
sI1350
(F0.000454736969415
F0.07789248132402145
tp274
sI2250
(F5.48608448398e-05
F0.15027330501842953
tp275
sI1100
(F0.000883603404494
F0.06845064018606405
tp276
sI2000
(F9.68378611157e-05
F0.12165802961533988
tp277
sI1750
(F0.000175122424776
F0.10036785232663605
tp278
sI1500
(F0.000313316646167
F0.08537436103456336
tp279
sI2400
(F3.88940627679e-05
F0.17235167107748098
tp280
sI1250
(F0.000587336603932
F0.07469215727031217
tp281
sI2150
(F6.92544101289e-05
F0.13774929120519713
tp282
sI1000
(F0.00120108838786
F0.06483178079353512
tp283
sI1900
(F0.000123832813647
F0.112210762269445
tp284
sI1650
(F0.000223020257749
F0.09375473179495845
tp285
sI1400
(F0.000403342195751
F0.08059120632959318
tp286
sI2300
(F4.90482717395e-05
F0.1570673440331607
tp287
sI1150
(F0.000719282549984
F0.06981570466114749
tp288
ssI300
(dp289
I2050
(F0.00150935363775
F0.061410342615050295
tp290
sI1800
(F0.00300066135286
F0.05506206847351251
tp291
sI1550
(F0.00609146228075
F0.049564581679692604
tp292
sI2450
(F0.000581965566628
F0.07479769638815202
tp293
sI1300
(F0.013322923149
F0.04387157776233751
tp294
sI2200
(F0.0010570000849
F0.06595712120637692
tp295
sI1050
(F0.0295182867221
F0.039746822124727015
tp296
sI1950
(F0.00197645807396
F0.05898645297869317
tp297
sI1700
(F0.00397338550098
F0.05265104423983074
tp298
sI1450
(F0.00817809701053
F0.047442814460677975
tp299
sI2350
(F0.000736326704655
F0.07076714692456341
tp300
sI1200
(F0.0179682662046
F0.04215261728942428
tp301
sI2100
(F0.00137070758454
F0.06294814288363053
tp302
sI1850
(F0.00275126840547
F0.056812302071377954
tp303
sI1600
(F0.00513479744721
F0.05155562815449326
tp304
sI2500
(F0.000504867778658
F0.07628297312213457
tp305
sI1350
(F0.011157385996
F0.0453349500783911
tp306
sI2250
(F0.000955017811789
F0.06778704720368406
tp307
sI1100
(F0.0256290614729
F0.03971328174058305
tp308
sI2000
(F0.00179785143159
F0.06033675936284934
tp309
sI1750
(F0.00346037701584
F0.054048896060130296
tp310
sI1500
(F0.00704912839715
F0.04848055477315034
tp311
sI2400
(F0.000647688194531
F0.07283152151037427
tp312
sI1250
(F0.0156133277715
F0.04284568742533556
tp313
sI2150
(F0.00124573494606
F0.06464493967565176
tp314
sI1000
(F0.0352377718194
F0.03802605794224181
tp315
sI1900
(F0.00226799682809
F0.057798772189816355
tp316
sI1650
(F0.00457391702158
F0.051849355589769316
tp317
sI1400
(F0.00916797347061
F0.04726994224549881
tp318
sI2300
(F0.00081511876227
F0.06898511741823214
tp319
sI1150
(F0.0211959288646
F0.0415910085675142
tp320
ssI1200
(dp321
I2050
(F0.000160327584586
F0.1035539546433718
tp322
sI1800
(F0.000286934377813
F0.08739893105713391
tp323
sI1550
(F0.000534624821028
F0.07598084985128765
tp324
sI2450
(F6.25821698919e-05
F0.14296727623258768
tp325
sI1300
(F0.000978809897216
F0.06687789213420098
tp326
sI2200
(F0.000111743309596
F0.11580972068293956
tp327
sI1050
(F0.00205517003811
F0.05942073211484982
tp328
sI1950
(F0.000203098041524
F0.09618268419684203
tp329
sI1700
(F0.000356126418673
F0.08199307140370211
tp330
sI1450
(F0.000690269398628
F0.07230115850477681
tp331
sI2350
(F7.93526642328e-05
F0.13088219245330723
tp332
sI1200
(F0.00117613593611
F0.06379040980674792
tp333
sI2100
(F0.000141665635957
F0.10747361984681568
tp334
sI1850
(F0.000259260246455
F0.09029416242788012
tp335
sI1600
(F0.000455647127155
F0.07731091529567968
tp336
sI2500
(F5.58949754408e-05
F0.14918144910541273
tp337
sI1350
(F0.000858696317395
F0.0683833382041728
tp338
sI2250
(F0.000100443782626
F0.12067583483223408
tp339
sI1100
(F0.00168969696488
F0.06095310836834839
tp340
sI2000
(F0.000177797261085
F0.10003435598930335
tp341
sI1750
(F0.0003244473938
F0.08497547858404157
tp342
sI1500
(F0.000607111118345
F0.07390442902332581
tp343
sI2400
(F7.05770475593e-05
F0.13694049595088867
tp344
sI1250
(F0.00111760732341
F0.0654666050286418
tp345
sI2150
(F0.000125790059095
F0.11165110038380018
tp346
sI1000
(F0.00227640561613
F0.057977288421635555
tp347
sI1900
(F0.000228390629265
F0.09285291035777996
tp348
sI1650
(F0.000425931226021
F0.08045407065531858
tp349
sI1400
(F0.000709924856014
F0.06969525371178757
tp350
sI2300
(F8.91750583838e-05
F0.13022668906275336
tp351
sI1150
(F0.00146712460115
F0.06235434702225871
tp352
ssI50
(dp353
I2050
(F0.00313611843121
F0.05525238143705709
tp354
sI1800
(F0.00631098704017
F0.0491021991003253
tp355
sI1550
(F0.0134009629922
F0.0440710090188111
tp356
sI2450
(F0.00111717288107
F0.06600407443991627
tp357
sI1300
(F0.0308500782724
F0.038766417600630626
tp358
sI2200
(F0.00205822692777
F0.059124680278985584
tp359
sI1050
(F0.077302298344
F0.034437596633588655
tp360
sI1950
(F0.00396565122744
F0.05276087256621099
tp361
sI1700
(F0.00838117542875
F0.047518732499720315
tp362
sI1450
(F0.0190923911162
F0.04142645441863442
tp363
sI2350
(F0.00137930704393
F0.06257297680811387
tp364
sI1200
(F0.0440612348884
F0.0363696218512452
tp365
sI2100
(F0.00272022369872
F0.05647517590273485
tp366
sI1850
(F0.00546879082974
F0.050437864286923886
tp367
sI1600
(F0.0116798924679
F0.044795210162844074
tp368
sI2500
(F0.000954487135248
F0.0670394950045861
tp369
sI1350
(F0.0262468250221
F0.03990992567550516
tp370
sI2250
(F0.00192622382167
F0.060695642513463606
tp371
sI1100
(F0.0630393470287
F0.03549898264446139
tp372
sI2000
(F0.00361855800694
F0.053732581472259365
tp373
sI1750
(F0.00729566373333
F0.04813188435080475
tp374
sI1500
(F0.0159476203439
F0.04281070793042457
tp375
sI2400
(F0.00124806664685
F0.06426899545721163
tp376
sI1250
(F0.0368571928751
F0.03744069293628363
tp377
sI2150
(F0.00236370540751
F0.05746777982671486
tp378
sI1000
(F0.0942306415452
F0.03360194743724834
tp379
sI1900
(F0.00457265648095
F0.05203453038387157
tp380
sI1650
(F0.0098156034102
F0.04630854048021672
tp381
sI1400
(F0.0221961281317
F0.04033229232423948
tp382
sI2300
(F0.00162647823339
F0.061551003577430055
tp383
sI1150
(F0.0531272770339
F0.03592421207136532
tp384
ssI950
(dp385
I2050
(F0.000295446438956
F0.08691787101832148
tp386
sI1800
(F0.00053661507517
F0.0752288160233126
tp387
sI1550
(F0.00102202760091
F0.0668425583746205
tp388
sI2450
(F0.000115553367282
F0.11529290174285793
tp389
sI1300
(F0.00200334082209
F0.05986611502474143
tp390
sI2200
(F0.000201204832326
F0.09592823919421277
tp391
sI1050
(F0.00388774329409
F0.053407248071043384
tp392
sI1950
(F0.000369201732071
F0.08156837744902194
tp393
sI1700
(F0.000692077144685
F0.07152915750979132
tp394
sI1450
(F0.00126796187882
F0.0634499401371364
tp395
sI2350
(F0.000145078395236
F0.10680519820400532
tp396
sI1200
(F0.00250700026181
F0.05675043707784925
tp397
sI2100
(F0.000261428207828
F0.0898915370481419
tp398
sI1850
(F0.000486106715707
F0.07775380627652523
tp399
sI1600
(F0.000857365977179
F0.06792815761552067
tp400
sI2500
(F0.000101637672014
F0.11993935141510176
tp401
sI1350
(F0.00164629030023
F0.06068896114405918
tp402
sI2250
(F0.00018453900374
F0.09930184449255226
tp403
sI1100
(F0.00334623394465
F0.05427251189246883
tp404
sI2000
(F0.000326625139534
F0.08466277680295171
tp405
sI1750
(F0.000609143578756
F0.07356775562736505
tp406
sI1500
(F0.00116697060501
F0.06552780506253172
tp407
sI2400
(F0.000127676877721
F0.11109872792782843
tp408
sI1250
(F0.0023202403988
F0.05931423318772361
tp409
sI2150
(F0.000232448156562
F0.09265214096010939
tp410
sI1000
(F0.0045208111654
F0.051998904533806255
tp411
sI1900
(F0.000418001832443
F0.07928879070289593
tp412
sI1650
(F0.000786959261867
F0.06979972122252417
tp413
sI1400
(F0.00152815613382
F0.06280911606883334
tp414
sI2300
(F0.000163557318361
F0.10289121188485295
tp415
sI1150
(F0.00256727205897
F0.05733905661562772
tp416
ssI700
(dp417
I2050
(F0.000554061335818
F0.0752732903315234
tp418
sI1800
(F0.00102114119918
F0.06620656218296685
tp419
sI1550
(F0.00200152853824
F0.0597461435779243
tp420
sI2450
(F0.000210130444031
F0.0953524398727491
tp421
sI1300
(F0.00363299683618
F0.0547125658793587
tp422
sI2200
(F0.000380572843667
F0.08165923802695846
tp423
sI1050
(F0.00832661316743
F0.0481207512147067
tp424
sI1950
(F0.000715332209964
F0.07143686106595384
tp425
sI1700
(F0.00133067092571
F0.06328699565023278
tp426
sI1450
(F0.00247613322043
F0.05647814413584516
tp427
sI2350
(F0.000266907541151
F0.08861923908593686
tp428
sI1200
(F0.00459466956616
F0.05406733837284812
tp429
sI2100
(F0.000490637359627
F0.07692735375633422
tp430
sI1850
(F0.000896565451334
F0.0678335386534358
tp431
sI1600
(F0.00174405013627
F0.060862730318073294
tp432
sI2500
(F0.000186222659086
F0.0988002391615683
tp433
sI1350
(F0.00328066634399
F0.05439293298658717
tp434
sI2250
(F0.000344304487159
F0.08413460904075466
tp435
sI1100
(F0.00590357136644
F0.05388042778888508
tp436
sI2000
(F0.000614047938562
F0.07273982118269115
tp437
sI1750
(F0.00116497660066
F0.0647760654465058
tp438
sI1500
(F0.00230145136592
F0.05844260612617065
tp439
sI2400
(F0.000237249178086
F0.09220132456252678
tp440
sI1250
(F0.0043650682822
F0.0521073737937872
tp441
sI2150
(F0.000428824329145
F0.07954789807055362
tp442
sI1000
(F0.00961411496101
F0.046357425204033444
tp443
sI1900
(F0.00078809455001
F0.06944038408691647
tp444
sI1650
(F0.00144066927978
F0.061540546366921155
tp445
sI1400
(F0.00303985307054
F0.056184405291226924
tp446
sI2300
(F0.000303010449954
F0.08651311009795075
tp447
sI1150
(F0.00508306987545
F0.054584460728948174
tp448
ssI450
(dp449
I2050
(F0.00105822275388
F0.06600482610187815
tp450
sI1800
(F0.00186521079947
F0.05953043720932301
tp451
sI1550
(F0.00402200878284
F0.05363655543006352
tp452
sI2450
(F0.000390520382313
F0.08138278782470101
tp453
sI1300
(F0.00800607793541
F0.04757030892586436
tp454
sI2200
(F0.000735575667115
F0.07138703756263663
tp455
sI1050
(F0.0181742750123
F0.04161396091091107
tp456
sI1950
(F0.00138108846533
F0.06342477533578549
tp457
sI1700
(F0.00262405094236
F0.056954137373410985
tp458
sI1450
(F0.00506117761399
F0.05109548827948146
tp459
sI2350
(F0.000490431222473
F0.07671187889158344
tp460
sI1200
(F0.0112297623459
F0.04510727117390332
tp461
sI2100
(F0.000927933660154
F0.067609045654501
tp462
sI1850
(F0.00173411548925
F0.060268823382808034
tp463
sI1600
(F0.00349428406503
F0.054372723962946845
tp464
sI2500
(F0.000346494245983
F0.08325576887448614
tp465
sI1350
(F0.00660474543163
F0.049907622621671664
tp466
sI2250
(F0.000646708645214
F0.0731074884186139
tp467
sI1100
(F0.0152446786678
F0.043033796095137654
tp468
sI2000
(F0.00120811609339
F0.06466490983013558
tp469
sI1750
(F0.00228125330548
F0.05752623427602549
tp470
sI1500
(F0.0046311595874
F0.052296478152887585
tp471
sI2400
(F0.000444134713801
F0.07899879807485789
tp472
sI1250
(F0.00931550508641
F0.04658099829670382
tp473
sI2150
(F0.000788111972177
F0.06904925981111511
tp474
sI1000
(F0.021456841639
F0.04052861399845465
tp475
sI1900
(F0.00151510195153
F0.06167465803660128
tp476
sI1650
(F0.00302462311332
F0.055541070596264695
tp477
sI1400
(F0.0058514408755
F0.05029209371817398
tp478
sI2300
(F0.000569202109072
F0.07468433649430264
tp479
sI1150
(F0.0131799211526
F0.04396809051377997
tp480
ssI1350
(dp481
I2050
(F0.000110966198713
F0.11652767037504314
tp482
sI1800
(F0.000198363762983
F0.09663105554940862
tp483
sI1550
(F0.000354874627254
F0.0829929964286226
tp484
sI2450
(F4.39233575733e-05
F0.16398322695823125
tp485
sI1300
(F0.000665118884047
F0.07229315616966037
tp486
sI2200
(F7.84365351055e-05
F0.13139564477239798
tp487
sI1050
(F0.00132026169298
F0.06339175428637375
tp488
sI1950
(F0.000138557328425
F0.10786049480370528
tp489
sI1700
(F0.000252737383579
F0.09079598199182559
tp490
sI1450
(F0.000469798359142
F0.07843854026416837
tp491
sI2350
(F5.56162372659e-05
F0.1498630500841223
tp492
sI1200
(F0.000806823417641
F0.0682565860802817
tp493
sI2100
(F9.86125989325e-05
F0.12113816154340304
tp494
sI1850
(F0.000176689399922
F0.10026071962506146
tp495
sI1600
(F0.000322996379593
F0.08555569770602744
tp496
sI2500
(F3.91289915229e-05
F0.1719867682161321
tp497
sI1350
(F0.000550872728651
F0.0732650450601077
tp498
sI2250
(F7.00242938699e-05
F0.13716759785061886
tp499
sI1100
(F0.00114043758488
F0.06512893078389334
tp500
sI2000
(F0.000124935281215
F0.11189954341193341
tp501
sI1750
(F0.000223833836106
F0.09391043912836079
tp502
sI1500
(F0.000414270889178
F0.08043682669356535
tp503
sI2400
(F4.93449451352e-05
F0.15681729206686323
tp504
sI1250
(F0.000757593712774
F0.07086425767621876
tp505
sI2150
(F8.76607200724e-05
F0.1253495437058319
tp506
sI1000
(F0.00142122900824
F0.0613411653683177
tp507
sI1900
(F0.00015864678871
F0.10382078176828417
tp508
sI1650
(F0.000285658263309
F0.08759862140424772
tp509
sI1400
(F0.000515193812218
F0.07605843545015106
tp510
sI2300
(F6.22892139723e-05
F0.14330978897678306
tp511
sI1150
(F0.000991008480364
F0.06680664598710838
tp512
ssI200
(dp513
I2050
(F0.00206881939332
F0.05871291912827302
tp514
sI1800
(F0.00394005993523
F0.05290614702383495
tp515
sI1550
(F0.00835331784652
F0.047227120820184085
tp516
sI2450
(F0.000736729020839
F0.07060073292723827
tp517
sI1300
(F0.0186291704495
F0.041580204878891434
tp518
sI2200
(F0.00137578137092
F0.06278213712236883
tp519
sI1050
(F0.043594915306
F0.03652249599578566
tp520
sI1950
(F0.00273895458007
F0.05716552875842082
tp521
sI1700
(F0.00532642200189
F0.050591769138528926
tp522
sI1450
(F0.011272566424
F0.04535029869858144
tp523
sI2350
(F0.00095488298978
F0.06740142000134311
tp524
sI1200
(F0.0252536131223
F0.03945859227086493
tp525
sI2100
(F0.00180296494903
F0.0602971944914893
tp526
sI1850
(F0.0035690528255
F0.054034232551596624
tp527
sI1600
(F0.00740749498948
F0.048387773112778254
tp528
sI2500
(F0.000648159587924
F0.07233879106390347
tp529
sI1350
(F0.0155781899048
F0.04296988139268636
tp530
sI2250
(F0.00124410514702
F0.06445688528319453
tp531
sI1100
(F0.0360895132281
F0.03806976415188221
tp532
sI2000
(F0.0022580998305
F0.05735228962987162
tp533
sI1750
(F0.00481256767482
F0.05186799346865003
tp534
sI1500
(F0.00940710292157
F0.04683814746373203
tp535
sI2400
(F0.000819048051354
F0.06874906944240178
tp536
sI1250
(F0.0213565955811
F0.04166638238594051
tp537
sI2150
(F0.00150535821593
F0.06113114114705784
tp538
sI1000
(F0.0514724320679
F0.036061517380243914
tp539
sI1900
(F0.00300288973903
F0.05492239997772104
tp540
sI1650
(F0.00628718796369
F0.049845950112499655
tp541
sI1400
(F0.0135375905904
F0.0436977618668346
tp542
sI2300
(F0.00108926157939
F0.06591262775678429
tp543
sI1150
(F0.0299787798772
F0.03911758080094117
tp544
ssI1100
(dp545
I2050
(F0.00020399687669
F0.09607292131380328
tp546
sI1800
(F0.000376667793091
F0.08197217275553084
tp547
sI1550
(F0.000664592542139
F0.07169787751008797
tp548
sI2450
(F8.00380575256e-05
F0.1309418411590997
tp549
sI1300
(F0.00127202333481
F0.06372558195004172
tp550
sI2200
(F0.000142275850845
F0.10710817044279541
tp551
sI1050
(F0.00229616670952
F0.05718548657185654
tp552
sI1950
(F0.000254873205759
F0.08972991083230973
tp553
sI1700
(F0.000474505238191
F0.07764030530421817
tp554
sI1450
(F0.000895865553641
F0.06887416843702623
tp555
sI2350
(F0.000100918752198
F0.12027675669220723
tp556
sI1200
(F0.0016678814644
F0.060918053267383025
tp557
sI2100
(F0.000181509434359
F0.09990086378890693
tp558
sI1850
(F0.000325355880164
F0.08428542871755441
tp559
sI1600
(F0.000607778076945
F0.07375877904174015
tp560
sI2500
(F7.09440483251e-05
F0.13622383803083282
tp561
sI1350
(F0.00111370578876
F0.06515467550096135
tp562
sI2250
(F0.000126871776453
F0.11138923941161408
tp563
sI1100
(F0.00221061350372
F0.05836999801406425
tp564
sI2000
(F0.000229189148707
F0.09360181014252698
tp565
sI1750
(F0.000418515970255
F0.08063960378557812
tp566
sI1500
(F0.00078629862407
F0.07039439302754318
tp567
sI2400
(F8.9674076586e-05
F0.126295681466411
tp568
sI1250
(F0.00145486883928
F0.06255008041318422
tp569
sI2150
(F0.000161890458728
F0.10319860029657471
tp570
sI1000
(F0.00266101135764
F0.056348402885428577
tp571
sI1900
(F0.00028779430604
F0.08688531761509065
tp572
sI1650
(F0.000535384870822
F0.07545037149981433
tp573
sI1400
(F0.00101627278423
F0.06725587701021338
tp574
sI2300
(F0.000113615778049
F0.11553858342314577
tp575
sI1150
(F0.00173728355563
F0.059995942161671215
tp576
ssI850
(dp577
I2050
(F0.00037918690944
F0.08164128372790906
tp578
sI1800
(F0.000692493542911
F0.07147968568215472
tp579
sI1550
(F0.00126571733267
F0.06324668018263713
tp580
sI2450
(F0.000145689865904
F0.10647628434445619
tp581
sI1300
(F0.00249285702081
F0.05697514728295574
tp582
sI2200
(F0.000262175555628
F0.0895747859610597
tp583
sI1050
(F0.00513520932601
F0.050815829949575814
tp584
sI1950
(F0.000474148520195
F0.07708344215662369
tp585
sI1700
(F0.000927552649289
F0.06850758301160467
tp586
sI1450
(F0.00174953966852
F0.06118343382665423
tp587
sI2350
(F0.000185193209642
F0.09891377296344252
tp588
sI1200
(F0.00331223536019
F0.05435031167038608
tp589
sI2100
(F0.000334980118998
F0.08385847737240704
tp590
sI1850
(F0.000613077634618
F0.07342197736677704
tp591
sI1600
(F0.00111012833636
F0.06470813884963754
tp592
sI2500
(F0.000130769413081
F0.11074358479249095
tp593
sI1350
(F0.00217020480189
F0.05779470706164137
tp594
sI2250
(F0.00023603225216
F0.09228850590737844
tp595
sI1100
(F0.00443257006075
F0.05217907876697288
tp596
sI2000
(F0.000429637401648
F0.07978563846935408
tp597
sI1750
(F0.00078326231175
F0.06985102769232021
tp598
sI1500
(F0.00145473849899
F0.06205704522405753
tp599
sI2400
(F0.000164208357797
F0.10270636600391188
tp600
sI1250
(F0.00287096329103
F0.055887679153652885
tp601
sI2150
(F0.000296303014187
F0.08656678186207048
tp602
sI1000
(F0.0059749918752
F0.04965443387486935
tp603
sI1900
(F0.000537523422015
F0.07523759071036618
tp604
sI1650
(F0.00102192698032
F0.06665094043399433
tp605
sI1400
(F0.00189131048912
F0.05933766323646687
tp606
sI2300
(F0.000206636488439
F0.0957773959188356
tp607
sI1150
(F0.00383360045565
F0.053286427653390867
tp608
ssI600
(dp609
I2050
(F0.000715939505044
F0.07126482329881259
tp610
sI1800
(F0.00132912861856
F0.06313390890515383
tp611
sI1550
(F0.00244636895626
F0.057137090861262695
tp612
sI2450
(F0.000272895723994
F0.0899460797020025
tp613
sI1300
(F0.00540918751392
F0.05130331445875335
tp614
sI2200
(F0.000489248242579
F0.07709043056053462
tp615
sI1050
(F0.0110328445113
F0.04515857123815242
tp616
sI1950
(F0.000927978125468
F0.0681013117397876
tp617
sI1700
(F0.0017403921582
F0.060588476373657794
tp618
sI1450
(F0.00352114163531
F0.05487907074319874
tp619
sI2350
(F0.000343738602514
F0.08424900819430228
tp620
sI1200
(F0.00610615677883
F0.05291076097736645
tp621
sI2100
(F0.000642520175142
F0.0729528061909351
tp622
sI1850
(F0.0011639347886
F0.06461801860305699
tp623
sI1600
(F0.00214814866835
F0.05787646164801814
tp624
sI2500
(F0.000238958010457
F0.0924198038076403
tp625
sI1350
(F0.00432764261511
F0.05234481503903993
tp626
sI2250
(F0.000433790537097
F0.07876737420313888
tp627
sI1100
(F0.00859951228625
F0.048568826855544055
tp628
sI2000
(F0.00081476099092
F0.06964220758191818
tp629
sI1750
(F0.00143691395873
F0.061642542674709644
tp630
sI1500
(F0.0028314503935
F0.05571326428784915
tp631
sI2400
(F0.000299664152212
F0.0863095929195507
tp632
sI1250
(F0.00554362811283
F0.05197831152871136
tp633
sI2150
(F0.000554948506802
F0.0749928923954175
tp634
sI1000
(F0.0129397422077
F0.043980355294586264
tp635
sI1900
(F0.00102064476132
F0.06609358508013745
tp636
sI1650
(F0.00199668739333
F0.06013125451038327
tp637
sI1400
(F0.00396176229302
F0.053877817314548916
tp638
sI2300
(F0.000389166509209
F0.08161879495812852
tp639
sI1150
(F0.0077873738275
F0.04781456685411703
tp640
ssI1500
(dp641
I2050
(F7.67765973963e-05
F0.13214615563425502
tp642
sI1800
(F0.000137660221175
F0.10814122612207112
tp643
sI1550
(F0.000246581646405
F0.09144032919573693
tp644
sI2450
(F3.07736278668e-05
F0.1900128114449069
tp645
sI1300
(F0.000452776578841
F0.07868526770487162
tp646
sI2200
(F5.44990687506e-05
F0.15033103500231462
tp647
sI1050
(F0.000905033145458
F0.06823153920020239
tp648
sI1950
(F9.70184586824e-05
F0.12168627179645844
tp649
sI1700
(F0.000171897095416
F0.10060004882136245
tp650
sI1450
(F0.000320246189504
F0.08547482020877598
tp651
sI2350
(F3.89080005751e-05
F0.17254260979183572
tp652
sI1200
(F0.000590627752071
F0.07414686466279621
tp653
sI2100
(F6.87941431701e-05
F0.1377679019769994
tp654
sI1850
(F0.000124040181217
F0.1123419472761153
tp655
sI1600
(F0.000217237253928
F0.09391525580442983
tp656
sI2500
(F2.74298573437e-05
F0.19894527305565282
tp657
sI1350
(F0.000401309559687
F0.08079394832280722
tp658
sI2250
(F4.85317906794e-05
F0.1577232995634983
tp659
sI1100
(F0.000731408606727
F0.06973951270392814
tp660
sI2000
(F8.69904529092e-05
F0.12626018782732887
tp661
sI1750
(F0.000155072225868
F0.10424754906891372
tp662
sI1500
(F0.000276930924478
F0.08852502998395743
tp663
sI2400
(F3.45488185547e-05
F0.18065374604194467
tp664
sI1250
(F0.000489720732301
F0.07658023754311742
tp665
sI2150
(F6.05777011318e-05
F0.1440493861413508
tp666
sI1000
(F0.000995271846872
F0.06604641389746246
tp667
sI1900
(F0.000108650647625
F0.1167293695475568
tp668
sI1650
(F0.000197173176104
F0.09735532296834862
tp669
sI1400
(F0.000364602791457
F0.08315065937358705
tp670
sI2300
(F4.35506458128e-05
F0.16453610657672355
tp671
sI1150
(F0.000676582946603
F0.07245818102309619
tp672
ssI350
(dp673
I2050
(F0.00132330973291
F0.06275817566933005
tp674
sI1800
(F0.00261220061983
F0.05611319982518771
tp675
sI1550
(F0.00505345610655
F0.051579760449319535
tp676
sI2450
(F0.000502342645758
F0.07682694327586935
tp677
sI1300
(F0.0113503444432
F0.0451334093661719
tp678
sI2200
(F0.000955204240231
F0.06782023657425716
tp679
sI1050
(F0.0258254616593
F0.03932245020271694
tp680
sI1950
(F0.00180998809512
F0.060566265798964854
tp681
sI1700
(F0.00347143853241
F0.054482786262586215
tp682
sI1450
(F0.00708383321928
F0.04861273992811496
tp683
sI2350
(F0.000647386677336
F0.07295001473653866
tp684
sI1200
(F0.0152247041838
F0.04319726517575269
tp685
sI2100
(F0.00123993117001
F0.06472053455665026
tp686
sI1850
(F0.00240395642349
F0.0590639256051351
tp687
sI1600
(F0.00459390986147
F0.05192787441059325
tp688
sI2500
(F0.00043572319118
F0.07875704242770895
tp689
sI1350
(F0.00955856813223
F0.04625799164543327
tp690
sI2250
(F0.000814987425169
F0.06910865469012682
tp691
sI1100
(F0.021806518219
F0.04043726772175358
tp692
sI2000
(F0.00157904496371
F0.061746027354422035
tp693
sI1750
(F0.00318501533298
F0.0556962936586635
tp694
sI1500
(F0.00611864678745
F0.04955076754044083
tp695
sI2400
(F0.000579165151617
F0.07462191122607494
tp696
sI1250
(F0.0130254065273
F0.04412768062365764
tp697
sI2150
(F0.00109042407406
F0.06635276898070284
tp698
sI1000
(F0.0297671624581
F0.0388401027026812
tp699
sI1900
(F0.00198066524672
F0.05887574786254894
tp700
sI1650
(F0.00415767347574
F0.05335625521639031
tp701
sI1400
(F0.00812658140194
F0.04759167553501306
tp702
sI2300
(F0.000720627092817
F0.07061917286604613
tp703
sI1150
(F0.0185855401131
F0.04162605385100962
tp704
ssI1250
(dp705
I2050
(F0.000139152117289
F0.10750812659666653
tp706
sI1800
(F0.000253635517956
F0.08999491203183844
tp707
sI1550
(F0.000470592817083
F0.0780804295323941
tp708
sI2450
(F5.61342934509e-05
F0.14928022959440398
tp709
sI1300
(F0.000859684484582
F0.0685227423282421
tp710
sI2200
(F9.90852703505e-05
F0.12078026581919309
tp711
sI1050
(F0.00156574154798
F0.06044161319541661
tp712
sI1950
(F0.000178878459308
F0.09994080145904116
tp713
sI1700
(F0.000331212659286
F0.0849297511868654
tp714
sI1450
(F0.000606598085643
F0.07406751493400211
tp715
sI2350
(F7.03910327113e-05
F0.13669154795473523
tp716
sI1200
(F0.00112102898555
F0.06542876535856403
tp717
sI2100
(F0.000125509254088
F0.11178020346661721
tp718
sI1850
(F0.000224567678134
F0.09345013777974621
tp719
sI1600
(F0.000402115283544
F0.07961507679500308
tp720
sI2500
(F4.9617333853e-05
F0.1560817561168042
tp721
sI1350
(F0.000755118288223
F0.07031483125901963
tp722
sI2250
(F8.90555822529e-05
F0.12434169233382796
tp723
sI1100
(F0.00135817722662
F0.06194387564645764
tp724
sI2000
(F0.000160877686011
F0.10363670454931827
tp725
sI1750
(F0.000287902747206
F0.08763975577782941
tp726
sI1500
(F0.000515810859052
F0.07584773582472391
tp727
sI2400
(F6.26247445907e-05
F0.14299195901359135
tp728
sI1250
(F0.000980681774742
F0.06718120773401011
tp729
sI2150
(F0.000112781657697
F0.11611301909555405
tp730
sI1000
(F0.00181796588873
F0.05885741927630387
tp731
sI1900
(F0.000202757441908
F0.09752987122698435
tp732
sI1650
(F0.000366494231224
F0.08250075421165315
tp733
sI1400
(F0.000663915353865
F0.0720861472936076
tp734
sI2300
(F7.91626502393e-05
F0.1310305115865171
tp735
sI1150
(F0.00128585105542
F0.06382281746021853
tp736
ssI100
(dp737
I2050
(F0.00283638475013
F0.05705851557042196
tp738
sI1800
(F0.00549401423784
F0.05059039256262926
tp739
sI1550
(F0.0116576908127
F0.044934444585143105
tp740
sI2450
(F0.000954628456148
F0.0672830692264029
tp741
sI1300
(F0.0255810643756
F0.04017393651806936
tp742
sI2200
(F0.00180738488097
F0.05993335273495518
tp743
sI1050
(F0.0627795722739
F0.0353028267206179
tp744
sI1950
(F0.0034688278879
F0.054091780629563824
tp745
sI1700
(F0.00713334525795
F0.048581613780683916
tp746
sI1450
(F0.0157042666274
F0.04302139310499312
tp747
sI2350
(F0.0012428713236
F0.06423252383083625
tp748
sI1200
(F0.036738068496
F0.037997156103130154
tp749
sI2100
(F0.0023555595218
F0.05742546825844339
tp750
sI1850
(F0.00476959067645
F0.051517086590727255
tp751
sI1600
(F0.00960236308967
F0.04644198894850641
tp752
sI2500
(F0.000858471501574
F0.0690900720128184
tp753
sI1350
(F0.0216517697064
F0.04079929680994549
tp754
sI2250
(F0.00162805517024
F0.061580039667341734
tp755
sI1100
(F0.0525656063196
F0.035658099878153625
tp756
sI2000
(F0.00314546764799
F0.05513788299549899
tp757
sI1750
(F0.00622265104103
F0.049437439405260214
tp758
sI1500
(F0.0134822684014
F0.043887737012085974
tp759
sI2400
(F0.00109359142722
F0.06590758789095769
tp760
sI1250
(F0.0313074906848
F0.038498369483670414
tp761
sI2150
(F0.00213572457137
F0.059109223354123976
tp762
sI1000
(F0.0762604601432
F0.034485028140555984
tp763
sI1900
(F0.00414680315874
F0.05302273966261969
tp764
sI1650
(F0.0082668867831
F0.04748895353019268
tp765
sI1400
(F0.018529290405
F0.04186603029210821
tp766
sI2300
(F0.00137327012641
F0.06273465814982622
tp767
sI1150
(F0.0437554029662
F0.03739028502020177
tp768
ssI1000
(dp769
I2050
(F0.000259740567455
F0.09022544711179992
tp770
sI1800
(F0.000472934883269
F0.07768648415917828
tp771
sI1550
(F0.000896243787841
F0.06846613711657448
tp772
sI2450
(F0.000101405376023
F0.12023260880305447
tp773
sI1300
(F0.00166000648957
F0.060882943439684784
tp774
sI2200
(F0.000181455026993
F0.0993717159651664
tp775
sI1050
(F0.0033759657659
F0.05462671868173875
tp776
sI1950
(F0.00032620000636
F0.08490223372109686
tp777
sI1700
(F0.000608717936379
F0.07388264350058264
tp778
sI1450
(F0.00116718603936
F0.06566851336761005
tp779
sI2350
(F0.000128512866014
F0.11108739473715244
tp780
sI1200
(F0.00218597838036
F0.05857365479429559
tp781
sI2100
(F0.000231018679932
F0.09333230673271355
tp782
sI1850
(F0.000428145669795
F0.07977604722372665
tp783
sI1600
(F0.000786711582944
F0.07010789475502872
tp784
sI2500
(F9.01338894175e-05
F0.12556024962684786
tp785
sI1350
(F0.00145010122217
F0.06210816781991624
tp786
sI2250
(F0.000163187567448
F0.10302267572961511
tp787
sI1100
(F0.00291041483802
F0.05552592689361814
tp788
sI2000
(F0.000294989603733
F0.08699278847985123
tp789
sI1750
(F0.000536323719462
F0.0756299875787499
tp790
sI1500
(F0.000976156718211
F0.0665465450990818
tp791
sI2400
(F0.000115307283943
F0.1153389406420701
tp792
sI1250
(F0.00172079771991
F0.06063111543433287
tp793
sI2150
(F0.000204690023105
F0.09620520703248177
tp794
sI1000
(F0.00345531077989
F0.05458640917474998
tp795
sI1900
(F0.00037607955297
F0.0819664914799529
tp796
sI1650
(F0.000691786557912
F0.07169262402104805
tp797
sI1400
(F0.00133487947313
F0.06417128084106642
tp798
sI2300
(F0.000144808585234
F0.1069709249010948
tp799
sI1150
(F0.00251862163454
F0.05728589203489135
tp800
ssI750
(dp801
I2050
(F0.000490265727737
F0.07749312253758169
tp802
sI1800
(F0.00089146275156
F0.06783288199981514
tp803
sI1550
(F0.00174649474933
F0.06104369293345959
tp804
sI2450
(F0.000187573231017
F0.09896312047009324
tp805
sI1300
(F0.00288618412513
F0.058363253261401946
tp806
sI2200
(F0.00034244185951
F0.08421684121230463
tp807
sI1050
(F0.00622617936854
F0.05135159291081801
tp808
sI1950
(F0.000610380451794
F0.07277412127443339
tp809
sI1700
(F0.00110910262201
F0.06450454683250668
tp810
sI1450
(F0.00193412904954
F0.060563959964232694
tp811
sI2350
(F0.000236792678491
F0.0927501409644925
tp812
sI1200
(F0.0043828258512
F0.05214603726986432
tp813
sI2100
(F0.000430458658979
F0.07898139281491051
tp814
sI1850
(F0.000814013850473
F0.06983966513378836
tp815
sI1600
(F0.00144178881584
F0.06163213022805216
tp816
sI2500
(F0.000164886274766
F0.10245767245803263
tp817
sI1350
(F0.00285397160975
F0.05554687376195964
tp818
sI2250
(F0.000302527103463
F0.08648812466979527
tp819
sI1100
(F0.00587190151186
F0.049510981136996216
tp820
sI2000
(F0.000556232397136
F0.07502125133732027
tp821
sI1750
(F0.00102149853682
F0.06637807891598387
tp822
sI1500
(F0.00188551726377
F0.05904410648906164
tp823
sI2400
(F0.000206504715644
F0.0957353660396879
tp824
sI1250
(F0.00389864601757
F0.053461541783398826
tp825
sI2150
(F0.000371005155985
F0.08146570293276999
tp826
sI1000
(F0.00795943656112
F0.04727104841200675
tp827
sI1900
(F0.000696810451062
F0.07152441377097755
tp828
sI1650
(F0.00133139842799
F0.063531155308556
tp829
sI1400
(F0.00265490070406
F0.05716564176200921
tp830
sI2300
(F0.000263068792525
F0.0890090436932947
tp831
sI1150
(F0.00506759028998
F0.0507534319427025
tp832
ssI500
(dp833
I2050
(F0.000928229145547
F0.06778861778178664
tp834
sI1800
(F0.00172578072492
F0.060293024961107645
tp835
sI1550
(F0.00323906244289
F0.054304073403123786
tp836
sI2450
(F0.000344655569824
F0.0831985971912276
tp837
sI1300
(F0.00701085708996
F0.04887586188124041
tp838
sI2200
(F0.000630576549648
F0.0730527002423648
tp839
sI1050
(F0.0155234345166
F0.042842463745301665
tp840
sI1950
(F0.00116882716035
F0.06442317673628656
tp841
sI1700
(F0.00228547138659
F0.05807584113798012
tp842
sI1450
(F0.00429449844336
F0.05267016047606907
tp843
sI2350
(F0.000448316708163
F0.0796628739730462
tp844
sI1200
(F0.00909322891275
F0.04695317207217197
tp845
sI2100
(F0.000837433236277
F0.06974595894015886
tp846
sI1850
(F0.00158333899535
F0.062141110530060946
tp847
sI1600
(F0.0028147237348
F0.05582598384141781
tp848
sI2500
(F0.000304758223862
F0.08615423834662223
tp849
sI1350
(F0.00572713638441
F0.05086269121597127
tp850
sI2250
(F0.000568663132722
F0.07510288812142601
tp851
sI1100
(F0.0132171820698
F0.0440301477410764
tp852
sI2000
(F0.00102568664074
F0.06601636231349166
tp853
sI1750
(F0.0020022489634
F0.05943168016825055
tp854
sI1500
(F0.0040362626345
F0.05351625023448409
tp855
sI2400
(F0.000390101442626
F0.08149650349275867
tp856
sI1250
(F0.00804382209275
F0.0474874035351035
tp857
sI2150
(F0.000731995899851
F0.0711633366979287
tp858
sI1000
(F0.0180908284831
F0.04169925781987914
tp859
sI1900
(F0.00137509793061
F0.06350278672171611
tp860
sI1650
(F0.00246894456845
F0.05720448253954399
tp861
sI1400
(F0.00523550462967
F0.05088992135373084
tp862
sI2300
(F0.000492290371737
F0.07684928753941052
tp863
sI1150
(F0.0112943885614
F0.0451664888538036
tp864
ssI1400
(dp865
I2050
(F9.90680843726e-05
F0.12121661237775315
tp866
sI1800
(F0.000175494567611
F0.1003800204246084
tp867
sI1550
(F0.000313572722686
F0.08512946407596382
tp868
sI2450
(F3.90116429663e-05
F0.17171984762464268
tp869
sI1300
(F0.00058225568304
F0.07409312000950667
tp870
sI2200
(F6.91699721739e-05
F0.137570122140523
tp871
sI1050
(F0.0011622317357
F0.06490535660426297
tp872
sI1950
(F0.000122820312677
F0.11215777301778215
tp873
sI1700
(F0.000223405961829
F0.09356225810437031
tp874
sI1450
(F0.000401248124132
F0.08026209757408212
tp875
sI2350
(F4.90323978497e-05
F0.15665759680988145
tp876
sI1200
(F0.000717488599107
F0.06982270388874705
tp877
sI2100
(F8.8688910323e-05
F0.12577155304283014
tp878
sI1850
(F0.000158259140395
F0.10394066301411369
tp879
sI1600
(F0.000291130169503
F0.08835732933077185
tp880
sI2500
(F3.48568876037e-05
F0.1804121690682009
tp881
sI1350
(F0.000515718020238
F0.07591736990406436
tp882
sI2250
(F6.15625267e-05
F0.14354962259646825
tp883
sI1100
(F0.00100301059186
F0.06691112808643955
tp884
sI2000
(F0.000110694259862
F0.11643471436520729
tp885
sI1750
(F0.000198003364145
F0.09698183555627689
tp886
sI1500
(F0.000354527340549
F0.0823585191133219
tp887
sI2400
(F4.38093593174e-05
F0.1644915700448933
tp888
sI1250
(F0.000666716460087
F0.07220821273696751
tp889
sI2150
(F7.77464023947e-05
F0.1316727887758555
tp890
sI1000
(F0.00125980103657
F0.06271995654466951
tp891
sI1900
(F0.000138250743426
F0.10778532377351092
tp892
sI1650
(F0.000252340971399
F0.09113898949424087
tp893
sI1400
(F0.000454453879338
F0.0780379396619105
tp894
sI2300
(F5.50833455329e-05
F0.14974271911159542
tp895
sI1150
(F0.000871761569757
F0.06862343522894167
tp896
ssI250
(dp897
I2050
(F0.00180564558667
F0.06034885439061255
tp898
sI1800
(F0.00351145887607
F0.053733036519046706
tp899
sI1550
(F0.00717024119333
F0.048506604284321575
tp900
sI2450
(F0.000647944333344
F0.07251864730677965
tp901
sI1300
(F0.0156578783145
F0.042825459125457044
tp902
sI2200
(F0.00120539061519
F0.06426425246482427
tp903
sI1050
(F0.0360354613468
F0.0374162982425569
tp904
sI1950
(F0.00238221574215
F0.05806246094493764
tp905
sI1700
(F0.00431429372435
F0.053228100828160055
tp906
sI1450
(F0.00975949000526
F0.046107996501914744
tp907
sI2350
(F0.000819195003473
F0.06878506439078542
tp908
sI1200
(F0.0214974743902
F0.04114888167910827
tp909
sI2100
(F0.00151636572417
F0.061244165714331646
tp910
sI1850
(F0.00277050163965
F0.0566052476290221
tp911
sI1600
(F0.00606210126727
F0.04958082431528823
tp912
sI2500
(F0.000570628618693
F0.07463102347169819
tp913
sI1350
(F0.0132442230061
F0.04400283132959802
tp914
sI2250
(F0.00108959630023
F0.06601329099843396
tp915
sI1100
(F0.0302177564123
F0.03911349626171796
tp916
sI2000
(F0.00207228213914
F0.059600377710757255
tp917
sI1750
(F0.00417595694128
F0.05325579343062684
tp918
sI1500
(F0.00847214491492
F0.04731804612560566
tp919
sI2400
(F0.000736457300512
F0.07073324587872859
tp920
sI1250
(F0.0182374865419
F0.041896129493806736
tp921
sI2150
(F0.00142473947483
F0.06342915486347633
tp922
sI1000
(F0.0423090584319
F0.03648706377984679
tp923
sI1900
(F0.00272954670548
F0.05664795789702707
tp924
sI1650
(F0.00524839855737
F0.050709293907428676
tp925
sI1400
(F0.0116580788272
F0.04503462542087623
tp926
sI2300
(F0.000954950556905
F0.06769945044791617
tp927
sI1150
(F0.025190976067
F0.04008917276266014
tp928
ssI1150
(dp929
I2050
(F0.000181197584933
F0.09980915193647427
tp930
sI1800
(F0.000324881612059
F0.08454749209170907
tp931
sI1550
(F0.000585425782255
F0.07365461414546665
tp932
sI2450
(F7.03389333514e-05
F0.13668131283851276
tp933
sI1300
(F0.00111513653735
F0.0652715673285799
tp934
sI2200
(F0.000127649064046
F0.1115412776710145
tp935
sI1050
(F0.00223469249503
F0.05810609006151284
tp936
sI1950
(F0.000229822805628
F0.09335660694321458
tp937
sI1700
(F0.000418280480098
F0.08048771360621994
tp938
sI1450
(F0.000786009587105
F0.07030822291524752
tp939
sI2350
(F8.91200109215e-05
F0.12758592346802441
tp940
sI1200
(F0.00145938448407
F0.06247573697599124
tp941
sI2100
(F0.000159964219481
F0.10330308110222584
tp942
sI1850
(F0.000293612211778
F0.08724658378980757
tp943
sI1600
(F0.000534916874232
F0.07578467296811796
tp944
sI2500
(F6.34483825567e-05
F0.14248110205758707
tp945
sI1350
(F0.000977599211671
F0.06661119408534781
tp946
sI2250
(F0.00011333820691
F0.11590045125145698
tp947
sI1100
(F0.00193114564302
F0.05953214923407481
tp948
sI2000
(F0.000203555036698
F0.09608914077433967
tp949
sI1750
(F0.000367589535586
F0.08263827208240292
tp950
sI1500
(F0.000690644250249
F0.07224728492289688
tp951
sI2400
(F7.95445480548e-05
F0.13055710685470825
tp952
sI1250
(F0.0011716805504
F0.06409061346018227
tp953
sI2150
(F0.000141371098685
F0.10721070348806847
tp954
sI1000
(F0.0023394700563
F0.05665676031803118
tp955
sI1900
(F0.000258480772474
F0.09010518518642519
tp956
sI1650
(F0.000471630932485
F0.07755853097371508
tp957
sI1400
(F0.000858029954202
F0.06842666832582142
tp958
sI2300
(F0.000100677701564
F0.12058015518245488
tp959
sI1150
(F0.00167636691283
F0.06103525144818698
tp960
ss.