(dp0
I2050
(F0.000132986
F38.4295
tp1
sI2055
(F0.000129168
F38.3045
tp2
sI2060
(F0.000126038
F38.5093
tp3
sI2065
(F0.000122947
F38.6767
tp4
sI2070
(F0.000119917
F38.8746
tp5
sI2075
(F0.000116863
F39.0064
tp6
sI2080
(F0.000113848
F39.0935
tp7
sI2085
(F0.00011089
F39.1331
tp8
sI2090
(F0.000107928
F39.2455
tp9
sI2095
(F0.000105687
F39.6278
tp10
sI2100
(F0.000102747
F39.6182
tp11
sI2105
(F0.000100124
F39.717
tp12
sI2110
(F9.75697e-05
F39.8632
tp13
sI2115
(F9.51727e-05
F40.0244
tp14
sI2120
(F9.27492e-05
F40.151
tp15
sI2125
(F9.04111e-05
F40.2787
tp16
sI2130
(F8.80739e-05
F40.4088
tp17
sI2135
(F8.58847e-05
F40.5571
tp18
sI2140
(F8.37677e-05
F40.6546
tp19
sI2145
(F8.16215e-05
F40.8046
tp20
sI2150
(F7.9509e-05
F40.9212
tp21
sI2155
(F7.76043e-05
F41.0951
tp22
sI2160
(F7.55901e-05
F41.1929
tp23
sI2165
(F7.36446e-05
F41.3507
tp24
sI2170
(F7.18436e-05
F41.5194
tp25
sI2175
(F7.00364e-05
F41.6296
tp26
sI2180
(F6.82667e-05
F41.8457
tp27
sI2185
(F6.66172e-05
F41.9098
tp28
sI2190
(F6.48877e-05
F42.0467
tp29
sI2195
(F6.32891e-05
F42.2349
tp30
sI2200
(F6.16684e-05
F42.3539
tp31
sI2205
(F6.01468e-05
F42.5742
tp32
sI2210
(F5.86245e-05
F42.7256
tp33
sI2215
(F5.71417e-05
F42.8522
tp34
sI2220
(F5.57323e-05
F42.9739
tp35
sI2225
(F5.43584e-05
F43.0744
tp36
sI2230
(F5.30372e-05
F43.2978
tp37
sI2235
(F5.16378e-05
F43.3906
tp38
sI2240
(F5.03858e-05
F43.7065
tp39
sI2245
(F4.91224e-05
F43.7934
tp40
sI200
(F647.123
F14.4819
tp41
sI2250
(F4.78852e-05
F43.9764
tp42
sI205
(F576.264
F14.3825
tp43
sI2255
(F4.667e-05
F44.192
tp44
sI210
(F514.437
F14.3718
tp45
sI2260
(F4.55862e-05
F44.3352
tp46
sI215
(F459.222
F14.2586
tp47
sI2265
(F4.43894e-05
F44.3951
tp48
sI220
(F411.197
F14.2776
tp49
sI2270
(F4.33019e-05
F44.5443
tp50
sI225
(F368.664
F14.1002
tp51
sI2275
(F4.22688e-05
F44.8229
tp52
sI230
(F331.203
F14.1749
tp53
sI2280
(F4.11527e-05
F44.9511
tp54
sI235
(F297.854
F14.2164
tp55
sI2285
(F4.01636e-05
F45.1057
tp56
sI240
(F268.031
F14.0526
tp57
sI2290
(F3.91795e-05
F45.2118
tp58
sI245
(F241.675
F14.017
tp59
sI2295
(F3.81668e-05
F45.3533
tp60
sI250
(F218.466
F13.9076
tp61
sI2300
(F3.7253e-05
F45.5729
tp62
sI255
(F197.78
F13.9698
tp63
sI2305
(F3.63202e-05
F45.7752
tp64
sI260
(F179.031
F14.0635
tp65
sI2310
(F3.54484e-05
F45.8503
tp66
sI265
(F162.892
F13.7607
tp67
sI2315
(F3.45467e-05
F45.9298
tp68
sI270
(F147.722
F14.1152
tp69
sI2320
(F3.37411e-05
F46.117
tp70
sI275
(F134.621
F13.7035
tp71
sI2325
(F3.28478e-05
F46.1577
tp72
sI280
(F122.495
F14.0755
tp73
sI2330
(F3.20439e-05
F46.3633
tp74
sI285
(F111.92
F13.9511
tp75
sI2335
(F3.12196e-05
F46.5449
tp76
sI290
(F102.257
F13.8374
tp77
sI2340
(F3.05255e-05
F46.6821
tp78
sI295
(F93.5774
F13.8143
tp79
sI2345
(F2.97336e-05
F46.7096
tp80
sI300
(F85.6773
F13.7874
tp81
sI2350
(F2.89819e-05
F47.0604
tp82
sI305
(F78.5774
F13.7698
tp83
sI2355
(F2.82851e-05
F47.2147
tp84
sI310
(F72.17
F13.7373
tp85
sI2360
(F2.7616e-05
F47.119
tp86
sI315
(F66.3205
F13.71
tp87
sI2365
(F2.69149e-05
F47.2891
tp88
sI320
(F61.0706
F13.6885
tp89
sI2370
(F2.62029e-05
F47.4464
tp90
sI325
(F56.2826
F13.6791
tp91
sI2375
(F2.56081e-05
F47.5754
tp92
sI330
(F51.9003
F13.6959
tp93
sI2380
(F2.49676e-05
F47.881
tp94
sI335
(F47.9148
F13.6427
tp95
sI2385
(F2.43049e-05
F47.8195
tp96
sI340
(F44.2862
F13.7132
tp97
sI2390
(F2.37072e-05
F47.8977
tp98
sI345
(F40.9551
F13.7445
tp99
sI2395
(F2.31717e-05
F48.1875
tp100
sI350
(F37.9377
F13.7445
tp101
sI2400
(F2.25798e-05
F48.2964
tp102
sI355
(F35.1596
F13.5904
tp103
sI2405
(F2.198e-05
F48.4535
tp104
sI360
(F32.6448
F13.5424
tp105
sI2410
(F2.14502e-05
F48.7286
tp106
sI365
(F30.273
F13.644
tp107
sI2415
(F2.09684e-05
F48.7841
tp108
sI370
(F28.2051
F13.7116
tp109
sI2420
(F2.04414e-05
F49.1449
tp110
sI375
(F26.1927
F13.5839
tp111
sI2425
(F1.99517e-05
F49.1326
tp112
sI380
(F24.4302
F13.627
tp113
sI2430
(F1.94656e-05
F49.1898
tp114
sI385
(F22.7675
F13.6255
tp115
sI2435
(F1.89387e-05
F49.5843
tp116
sI390
(F21.2082
F13.671
tp117
sI2440
(F1.84422e-05
F49.6237
tp118
sI395
(F19.7936
F13.4109
tp119
sI2445
(F1.80342e-05
F49.8531
tp120
sI400
(F18.4856
F13.6049
tp121
sI2450
(F1.75454e-05
F49.9194
tp122
sI405
(F17.2226
F13.5856
tp123
sI2455
(F1.71329e-05
F50.2113
tp124
sI410
(F16.1212
F13.7752
tp125
sI2460
(F1.67145e-05
F50.4412
tp126
sI415
(F15.062
F13.6937
tp127
sI2465
(F1.63243e-05
F50.5147
tp128
sI420
(F14.1029
F13.579
tp129
sI2470
(F1.59214e-05
F50.7092
tp130
sI425
(F13.1981
F13.749
tp131
sI2475
(F1.55232e-05
F50.8733
tp132
sI430
(F12.3438
F13.6286
tp133
sI2480
(F1.51313e-05
F50.9522
tp134
sI435
(F11.5839
F13.359
tp135
sI2485
(F1.48033e-05
F51.302
tp136
sI440
(F10.8808
F13.5647
tp137
sI2490
(F1.44105e-05
F51.391
tp138
sI445
(F10.2027
F13.5204
tp139
sI2495
(F1.40268e-05
F51.3983
tp140
sI450
(F9.57232
F13.4818
tp141
sI2500
(F1.3713e-05
F51.7088
tp142
sI455
(F8.99484
F13.4881
tp143
sI2505
(F1.3407e-05
F51.9383
tp144
sI460
(F8.45567
F13.4068
tp145
sI2510
(F1.30218e-05
F51.9455
tp146
sI465
(F7.94683
F13.4272
tp147
sI2515
(F1.27185e-05
F52.1416
tp148
sI470
(F7.47989
F13.3942
tp149
sI2520
(F1.24145e-05
F52.274
tp150
sI475
(F7.0409
F13.3916
tp151
sI2525
(F1.21144e-05
F52.4314
tp152
sI480
(F6.63465
F13.3295
tp153
sI2530
(F1.18177e-05
F52.543
tp154
sI485
(F6.24667
F13.2972
tp155
sI2535
(F1.15187e-05
F52.7045
tp156
sI490
(F5.88974
F13.3993
tp157
sI2540
(F1.12979e-05
F53.1442
tp158
sI495
(F5.55371
F13.3035
tp159
sI2545
(F1.10092e-05
F53.1663
tp160
sI500
(F5.24259
F13.3117
tp161
sI2550
(F1.07144e-05
F53.2415
tp162
sI505
(F4.95179
F13.2598
tp163
sI2555
(F1.05047e-05
F53.5392
tp164
sI510
(F4.66923
F13.2386
tp165
sI2560
(F1.02141e-05
F53.5694
tp166
sI515
(F4.40697
F13.2169
tp167
sI2565
(F9.97241e-06
F53.7447
tp168
sI520
(F4.16639
F13.1123
tp169
sI2570
(F9.72834e-06
F53.8844
tp170
sI525
(F3.94057
F13.1741
tp171
sI2575
(F9.48988e-06
F54.0065
tp172
sI530
(F3.72433
F13.2043
tp173
sI2580
(F9.25865e-06
F54.1746
tp174
sI535
(F3.52298
F13.1003
tp175
sI2585
(F9.04011e-06
F54.3189
tp176
sI540
(F3.32856
F13.1226
tp177
sI2590
(F8.81995e-06
F54.466
tp178
sI545
(F3.15229
F13.1523
tp179
sI2595
(F8.60585e-06
F54.7048
tp180
sI550
(F2.9864
F13.133
tp181
sI2600
(F8.39675e-06
F54.8323
tp182
sI555
(F2.83204
F13.1168
tp183
sI2605
(F8.1928e-06
F55.0508
tp184
sI560
(F2.681
F12.9114
tp185
sI2610
(F7.99589e-06
F55.1564
tp186
sI565
(F2.54074
F13.0752
tp187
sI2615
(F7.80332e-06
F55.3485
tp188
sI570
(F2.40583
F13.0504
tp189
sI2620
(F7.61039e-06
F55.5497
tp190
sI575
(F2.28584
F13.1663
tp191
sI2625
(F7.42425e-06
F55.6308
tp192
sI580
(F2.17082
F13.123
tp193
sI2630
(F7.24299e-06
F55.9167
tp194
sI585
(F2.06052
F12.8089
tp195
sI2635
(F7.06555e-06
F56.0028
tp196
sI590
(F1.95681
F13.1688
tp197
sI2640
(F6.89334e-06
F56.1933
tp198
sI595
(F1.86157
F13.0484
tp199
sI2645
(F6.72398e-06
F56.3394
tp200
sI600
(F1.76645
F12.9555
tp201
sI2650
(F6.56135e-06
F56.5402
tp202
sI605
(F1.67649
F13.1135
tp203
sI2655
(F6.39851e-06
F56.7467
tp204
sI610
(F1.59243
F12.9743
tp205
sI2660
(F6.24982e-06
F56.8759
tp206
sI615
(F1.51752
F12.8072
tp207
sI2665
(F6.09854e-06
F57.0435
tp208
sI620
(F1.44774
F12.9264
tp209
sI2670
(F5.94712e-06
F57.2157
tp210
sI625
(F1.37806
F13.0578
tp211
sI2675
(F5.8013e-06
F57.4352
tp212
sI630
(F1.30884
F13.2149
tp213
sI2680
(F5.6629e-06
F57.5291
tp214
sI635
(F1.24465
F12.9952
tp215
sI2685
(F5.51886e-06
F57.7774
tp216
sI640
(F1.18508
F13.173
tp217
sI2690
(F5.3866e-06
F57.9812
tp218
sI645
(F1.12974
F12.8793
tp219
sI2695
(F5.26008e-06
F58.0325
tp220
sI650
(F1.08047
F12.9575
tp221
sI2700
(F5.12741e-06
F58.2457
tp222
sI655
(F1.03087
F13.1015
tp223
sI2705
(F5.00784e-06
F58.3629
tp224
sI660
(F0.981828
F13.2156
tp225
sI2710
(F4.87531e-06
F58.5928
tp226
sI665
(F0.934859
F13.1495
tp227
sI2715
(F4.76331e-06
F58.7893
tp228
sI670
(F0.892535
F13.1479
tp229
sI2720
(F4.645e-06
F58.763
tp230
sI675
(F0.851836
F13.1774
tp231
sI2725
(F4.53191e-06
F59.0195
tp232
sI680
(F0.813163
F13.2073
tp233
sI2730
(F4.42348e-06
F59.0884
tp234
sI685
(F0.776334
F13.1745
tp235
sI2735
(F4.31059e-06
F59.3158
tp236
sI690
(F0.741622
F13.1849
tp237
sI2740
(F4.20915e-06
F59.5192
tp238
sI695
(F0.708497
F13.1928
tp239
sI2745
(F4.10803e-06
F59.6851
tp240
sI700
(F0.677259
F13.2583
tp241
sI2750
(F4.01086e-06
F59.6952
tp242
sI705
(F0.647281
F13.2892
tp243
sI2755
(F3.90704e-06
F59.8941
tp244
sI710
(F0.619209
F13.3606
tp245
sI2760
(F3.8177e-06
F59.9911
tp246
sI715
(F0.592224
F13.3862
tp247
sI2765
(F3.71579e-06
F60.1857
tp248
sI720
(F0.567269
F13.4088
tp249
sI2770
(F3.62648e-06
F60.2954
tp250
sI725
(F0.543133
F13.4882
tp251
sI2775
(F3.5437e-06
F60.5395
tp252
sI730
(F0.520164
F13.5137
tp253
sI2780
(F3.45405e-06
F60.6585
tp254
sI735
(F0.497146
F13.5459
tp255
sI2785
(F3.37185e-06
F60.8798
tp256
sI740
(F0.477052
F13.6138
tp257
sI2790
(F3.29362e-06
F60.9116
tp258
sI745
(F0.457041
F13.6397
tp259
sI2795
(F3.2107e-06
F61.1883
tp260
sI750
(F0.437009
F13.6785
tp261
sI2800
(F3.1322e-06
F61.223
tp262
sI755
(F0.419022
F13.7007
tp263
sI2805
(F3.05349e-06
F61.2608
tp264
sI760
(F0.401888
F13.782
tp265
sI2810
(F2.98249e-06
F61.448
tp266
sI765
(F0.384857
F13.8149
tp267
sI2815
(F2.91167e-06
F61.5992
tp268
sI770
(F0.369816
F13.8324
tp269
sI2820
(F2.84177e-06
F61.8161
tp270
sI775
(F0.354842
F13.8677
tp271
sI2825
(F2.77069e-06
F61.9805
tp272
sI780
(F0.339672
F13.9475
tp273
sI2830
(F2.70772e-06
F62.268
tp274
sI785
(F0.326626
F13.9694
tp275
sI2835
(F2.64009e-06
F62.2423
tp276
sI790
(F0.312596
F14.0176
tp277
sI2840
(F2.57687e-06
F62.5469
tp278
sI795
(F0.300457
F14.0908
tp279
sI2845
(F2.51852e-06
F62.663
tp280
sI800
(F0.288396
F14.1149
tp281
sI2850
(F2.45908e-06
F62.7219
tp282
sI805
(F0.277341
F14.1425
tp283
sI2855
(F2.39493e-06
F63.0933
tp284
sI810
(F0.266073
F14.177
tp285
sI2860
(F2.33665e-06
F63.1849
tp286
sI815
(F0.254922
F14.2721
tp287
sI2865
(F2.28465e-06
F63.4262
tp288
sI820
(F0.244866
F14.3034
tp289
sI2870
(F2.22499e-06
F63.5085
tp290
sI825
(F0.235635
F14.3475
tp291
sI2875
(F2.17284e-06
F63.7664
tp292
sI830
(F0.226532
F14.3895
tp293
sI2880
(F2.12407e-06
F63.8567
tp294
sI835
(F0.217309
F14.4336
tp295
sI2885
(F2.06477e-06
F63.8922
tp296
sI840
(F0.209274
F14.4493
tp297
sI2890
(F2.02279e-06
F64.1528
tp298
sI845
(F0.201152
F14.5336
tp299
sI2895
(F1.97303e-06
F64.3277
tp300
sI850
(F0.192979
F14.5966
tp301
sI2900
(F1.92284e-06
F64.4175
tp302
sI855
(F0.185923
F14.6315
tp303
sI2905
(F1.87296e-06
F64.4749
tp304
sI860
(F0.178718
F14.6774
tp305
sI2910
(F1.83206e-06
F64.7541
tp306
sI865
(F0.171653
F14.7153
tp307
sI2915
(F1.79081e-06
F64.949
tp308
sI870
(F0.164543
F14.8089
tp309
sI2920
(F1.74123e-06
F64.9831
tp310
sI875
(F0.158389
F14.8425
tp311
sI2925
(F1.70101e-06
F65.1684
tp312
sI880
(F0.152359
F14.867
tp313
sI2930
(F1.65997e-06
F65.3415
tp314
sI885
(F0.147204
F14.9224
tp315
sI2935
(F1.61935e-06
F65.4858
tp316
sI890
(F0.141088
F15.0128
tp317
sI2940
(F1.57928e-06
F65.6426
tp318
sI895
(F0.136011
F15.0096
tp319
sI2945
(F1.53876e-06
F65.7532
tp320
sI900
(F0.130931
F15.0806
tp321
sI2950
(F1.50688e-06
F66.0558
tp322
sI905
(F0.125868
F15.1762
tp323
sI2955
(F1.46735e-06
F66.1395
tp324
sI910
(F0.1218
F15.1514
tp325
sI2960
(F1.42736e-06
F66.1728
tp326
sI915
(F0.116718
F15.2446
tp327
sI2965
(F1.3961e-06
F66.4058
tp328
sI920
(F0.112638
F15.3262
tp329
sI2970
(F1.36493e-06
F66.608
tp330
sI925
(F0.108617
F15.3538
tp331
sI2975
(F1.32546e-06
F66.6533
tp332
sI930
(F0.104507
F15.3998
tp333
sI2980
(F1.2947e-06
F66.8201
tp334
sI935
(F0.100444
F15.4833
tp335
sI2985
(F1.26347e-06
F67.026
tp336
sI940
(F0.0968237
F15.5149
tp337
sI2990
(F1.23342e-06
F67.1665
tp338
sI945
(F0.0932657
F15.5923
tp339
sI2995
(F1.20261e-06
F67.3333
tp340
sI950
(F0.0898112
F15.6729
tp341
sI3000
(F1.17224e-06
F67.4134
tp342
sI955
(F0.0865572
F15.6699
tp343
sI960
(F0.0834102
F15.7449
tp344
sI965
(F0.0804756
F15.8326
tp345
sI970
(F0.0775584
F15.8687
tp346
sI975
(F0.0748161
F15.9426
tp347
sI980
(F0.0721752
F16.0179
tp348
sI985
(F0.0695311
F16.0181
tp349
sI990
(F0.067093
F16.0962
tp350
sI995
(F0.0646722
F16.1432
tp351
sI1000
(F0.0624391
F16.2195
tp352
sI1005
(F0.0602317
F16.2524
tp353
sI1010
(F0.0582097
F16.3358
tp354
sI1015
(F0.0562005
F16.369
tp355
sI1020
(F0.05417
F16.4512
tp356
sI1025
(F0.0523424
F16.4375
tp357
sI1030
(F0.0505204
F16.5325
tp358
sI1035
(F0.0488126
F16.562
tp359
sI1040
(F0.0471053
F16.5943
tp360
sI1045
(F0.0455808
F16.6644
tp361
sI1050
(F0.0439731
F16.6985
tp362
sI1055
(F0.042552
F16.8004
tp363
sI1060
(F0.0410441
F16.8366
tp364
sI1065
(F0.0397376
F16.8632
tp365
sI1070
(F0.0384145
F16.9362
tp366
sI1075
(F0.0371126
F16.9894
tp367
sI1080
(F0.0358894
F16.9815
tp368
sI1085
(F0.0346665
F17.0692
tp369
sI1090
(F0.0334597
F17.1012
tp370
sI1095
(F0.0324417
F17.1689
tp371
sI1100
(F0.0313372
F17.2245
tp372
sI1105
(F0.0303301
F17.2581
tp373
sI1110
(F0.0293082
F17.3588
tp374
sI1115
(F0.028402
F17.396
tp375
sI1120
(F0.027369
F17.4568
tp376
sI1125
(F0.0265647
F17.4822
tp377
sI1130
(F0.0256493
F17.5958
tp378
sI1135
(F0.0248414
F17.6324
tp379
sI1140
(F0.0240272
F17.7108
tp380
sI1145
(F0.0232073
F17.7299
tp381
sI1150
(F0.0224935
F17.8068
tp382
sI1155
(F0.0217885
F17.8353
tp383
sI1160
(F0.0210738
F17.9581
tp384
sI1165
(F0.0203671
F18.0072
tp385
sI1170
(F0.0197444
F18.0459
tp386
sI1175
(F0.0191402
F18.0791
tp387
sI1180
(F0.0185254
F18.1758
tp388
sI1185
(F0.0179203
F18.2092
tp389
sI1190
(F0.0174007
F18.2528
tp390
sI1195
(F0.0167944
F18.3108
tp391
sI1200
(F0.0162846
F18.4017
tp392
sI1205
(F0.0157704
F18.4962
tp393
sI1210
(F0.0152578
F18.491
tp394
sI1215
(F0.014745
F18.5983
tp395
sI1220
(F0.0143423
F18.6099
tp396
sI1225
(F0.0139255
F18.6562
tp397
sI1230
(F0.0134218
F18.704
tp398
sI1235
(F0.0129991
F18.9004
tp399
sI1240
(F0.0125998
F18.8
tp400
sI1245
(F0.0121898
F18.8862
tp401
sI1250
(F0.0118571
F19.2078
tp402
sI1255
(F0.0114726
F18.9565
tp403
sI1260
(F0.0111316
F19.3885
tp404
sI1265
(F0.0107587
F19.1136
tp405
sI1270
(F0.0104346
F19.2941
tp406
sI1275
(F0.010118
F19.3682
tp407
sI1280
(F0.00980699
F19.4994
tp408
sI1285
(F0.00950018
F19.5837
tp409
sI1290
(F0.00921049
F19.6208
tp410
sI1295
(F0.00893137
F19.77
tp411
sI1300
(F0.0086557
F19.8532
tp412
sI1305
(F0.00839044
F19.938
tp413
sI1310
(F0.00813531
F20.0215
tp414
sI1315
(F0.00789047
F20.1048
tp415
sI1320
(F0.00765264
F20.2666
tp416
sI1325
(F0.00741995
F20.3209
tp417
sI1330
(F0.00720162
F20.473
tp418
sI1335
(F0.0069817
F20.4833
tp419
sI1340
(F0.00677688
F20.6716
tp420
sI1345
(F0.00657365
F20.7687
tp421
sI1350
(F0.00637816
F20.8815
tp422
sI1355
(F0.0061846
F20.9629
tp423
sI1360
(F0.00600128
F21.0402
tp424
sI1365
(F0.00582403
F21.2046
tp425
sI1370
(F0.00564975
F21.3367
tp426
sI1375
(F0.00548729
F21.404
tp427
sI1380
(F0.00532245
F21.6145
tp428
sI1385
(F0.00516408
F21.5896
tp429
sI1390
(F0.00500997
F21.6988
tp430
sI1395
(F0.00486428
F21.8769
tp431
sI1400
(F0.00472062
F21.9859
tp432
sI1405
(F0.00457838
F22.0522
tp433
sI1410
(F0.00444646
F22.1098
tp434
sI1415
(F0.00431954
F22.3156
tp435
sI1420
(F0.00418555
F22.3442
tp436
sI1425
(F0.00406326
F22.4556
tp437
sI1430
(F0.00394673
F22.6671
tp438
sI1435
(F0.00382517
F22.7321
tp439
sI1440
(F0.00371903
F22.9433
tp440
sI1445
(F0.00360627
F22.9688
tp441
sI1450
(F0.00350484
F23.0346
tp442
sI1455
(F0.0033998
F23.237
tp443
sI1460
(F0.00329856
F23.3314
tp444
sI1465
(F0.00320875
F23.3443
tp445
sI1470
(F0.00311287
F23.5932
tp446
sI1475
(F0.00302138
F23.5899
tp447
sI1480
(F0.0029364
F23.8261
tp448
sI1485
(F0.00285079
F23.6633
tp449
sI1490
(F0.00276624
F23.9217
tp450
sI1495
(F0.00269197
F24.1416
tp451
sI1500
(F0.00261222
F24.1631
tp452
sI1505
(F0.00253875
F24.3735
tp453
sI1510
(F0.00247025
F24.4485
tp454
sI1515
(F0.00239664
F24.6732
tp455
sI1520
(F0.00232753
F24.6651
tp456
sI1525
(F0.00226595
F24.9068
tp457
sI1530
(F0.00220017
F24.7012
tp458
sI1535
(F0.00213696
F24.926
tp459
sI1540
(F0.00208593
F25.1365
tp460
sI1545
(F0.00202257
F25.3823
tp461
sI1550
(F0.0019636
F25.3454
tp462
sI1555
(F0.00191116
F25.662
tp463
sI1560
(F0.0018585
F25.8822
tp464
sI1565
(F0.00181034
F25.796
tp465
sI1570
(F0.00175834
F26.0932
tp466
sI1575
(F0.00170917
F26.0678
tp467
sI1580
(F0.00166086
F25.9705
tp468
sI1585
(F0.00161877
F26.1877
tp469
sI1590
(F0.00157092
F26.1465
tp470
sI1595
(F0.00152798
F26.4102
tp471
sI1600
(F0.00148553
F26.6472
tp472
sI1605
(F0.00144251
F26.9422
tp473
sI1610
(F0.00140383
F26.7641
tp474
sI1615
(F0.00136078
F27.0766
tp475
sI1620
(F0.00132858
F27.3245
tp476
sI1625
(F0.00128986
F27.1445
tp477
sI1630
(F0.00125766
F27.4026
tp478
sI1635
(F0.00121903
F27.2976
tp479
sI1640
(F0.00118487
F27.6863
tp480
sI1645
(F0.00115306
F27.9321
tp481
sI1650
(F0.00112118
F28.1032
tp482
sI1655
(F0.00109063
F28.2205
tp483
sI1660
(F0.00106015
F28.3336
tp484
sI1665
(F0.00103
F28.3145
tp485
sI1670
(F0.00100058
F28.4227
tp486
sI1675
(F0.000972424
F28.5388
tp487
sI1680
(F0.000946146
F28.6347
tp488
sI1685
(F0.000920175
F28.8298
tp489
sI1690
(F0.000894516
F28.8925
tp490
sI1695
(F0.000870061
F29.0242
tp491
sI1700
(F0.000846524
F29.1726
tp492
sI1705
(F0.000823556
F29.2629
tp493
sI1710
(F0.000801102
F29.4038
tp494
sI1715
(F0.000780508
F29.4979
tp495
sI1720
(F0.000759081
F29.638
tp496
sI1725
(F0.000738959
F29.7268
tp497
sI1730
(F0.00071944
F29.8281
tp498
sI1735
(F0.000700094
F29.96
tp499
sI1740
(F0.000681169
F30.0109
tp500
sI1745
(F0.000663196
F30.1652
tp501
sI1750
(F0.000646271
F30.2417
tp502
sI1755
(F0.000628653
F30.3182
tp503
sI1760
(F0.00061246
F30.4234
tp504
sI1765
(F0.000596726
F30.519
tp505
sI1770
(F0.000580561
F30.641
tp506
sI1775
(F0.000564995
F30.6936
tp507
sI1780
(F0.000550449
F30.8778
tp508
sI1785
(F0.000535537
F31.0345
tp509
sI1790
(F0.000521567
F31.0842
tp510
sI1795
(F0.000507639
F31.2144
tp511
sI1800
(F0.000494604
F31.3049
tp512
sI1805
(F0.000481468
F31.3967
tp513
sI1810
(F0.000468566
F31.5167
tp514
sI1815
(F0.00045642
F31.6391
tp515
sI1820
(F0.000443888
F31.8513
tp516
sI1825
(F0.000433133
F31.9279
tp517
sI1830
(F0.000420932
F32.0682
tp518
sI1835
(F0.000409923
F32.1237
tp519
sI1840
(F0.000399551
F32.3032
tp520
sI1845
(F0.000388621
F32.4496
tp521
sI1850
(F0.000378227
F32.6422
tp522
sI1855
(F0.000368147
F32.7273
tp523
sI1860
(F0.000359063
F32.9325
tp524
sI1865
(F0.000348978
F33.0239
tp525
sI1870
(F0.000339637
F33.2109
tp526
sI1875
(F0.000331521
F33.437
tp527
sI1880
(F0.000322607
F33.4553
tp528
sI1885
(F0.000314258
F33.6613
tp529
sI1890
(F0.000306048
F33.8375
tp530
sI1895
(F0.000297806
F34.1003
tp531
sI1900
(F0.000289986
F34.0784
tp532
sI1905
(F0.000282839
F34.2301
tp533
sI1910
(F0.00027504
F34.2827
tp534
sI1915
(F0.000267844
F34.434
tp535
sI1920
(F0.000260595
F34.6473
tp536
sI1925
(F0.000254625
F34.7808
tp537
sI1930
(F0.000247335
F34.9987
tp538
sI1935
(F0.000241262
F35.1189
tp539
sI1940
(F0.000234596
F35.0816
tp540
sI1945
(F0.000228387
F35.2599
tp541
sI1950
(F0.000223058
F35.6109
tp542
sI1955
(F0.000217311
F35.5372
tp543
sI1960
(F0.000211162
F35.6857
tp544
sI1965
(F0.000206251
F35.7757
tp545
sI1970
(F0.000200737
F36.2081
tp546
sI1975
(F0.000195694
F36.2961
tp547
sI1980
(F0.000190682
F36.465
tp548
sI1985
(F0.000185629
F36.5595
tp549
sI1990
(F0.000180592
F36.6756
tp550
sI1995
(F0.000175997
F36.5186
tp551
sI2000
(F0.000171615
F36.8769
tp552
sI2005
(F0.000167229
F37.2526
tp553
sI2010
(F0.000162636
F37.0951
tp554
sI2015
(F0.000158685
F37.1186
tp555
sI2020
(F0.00015472
F37.1404
tp556
sI2025
(F0.000151003
F37.8493
tp557
sI2030
(F0.000147057
F37.9647
tp558
sI2035
(F0.000143081
F38.0117
tp559
sI2040
(F0.00013954
F37.6248
tp560
sI2045
(F0.000136088
F38.163
tp561
s.