(dp0
I900
(dp1
I900
(F0.0177401993424
F0.0006328113784589104
tp2
sI650
(F0.107000000775
F0.0006267850421891737
tp3
sI400
(F1.64999997616
F0.0006016787965721349
tp4
sI1300
(F0.00184008001816
F0.0006669003455768715
tp5
sI1050
(F0.0071901101619
F0.0006410138226285637
tp6
sI800
(F0.0340102016926
F0.0006387671615816049
tp7
sI550
(F0.267601013184
F0.0006191643223939282
tp8
sI1450
(F0.000854068028275
F0.0006918582366248452
tp9
sI300
(F10.9600000381
F0.0005912399614483355
tp10
sI1200
(F0.00291808997281
F0.0006988475403437402
tp11
sI950
(F0.0127001004294
F0.000650060213767147
tp12
sI700
(F0.0712002962828
F0.0006329580402446567
tp13
sI450
(F0.824999988079
F0.0006073381905940346
tp14
sI1350
(F0.00139608001336
F0.0006859356131710936
tp15
sI200
(F0.0
F0.0
tp16
sI1100
(F0.00500111002475
F0.0006975531397500874
tp17
sI850
(F0.0234602000564
F0.0006596363186501612
tp18
sI600
(F0.163907006383
F0.0006283196934202652
tp19
sI1500
(F0.000682062003762
F0.0006859933516590764
tp20
sI350
(F3.78999996185
F0.0005960686075831181
tp21
sI1250
(F0.00222109002061
F0.000712276398218885
tp22
sI1000
(F0.00878013018519
F0.0006989418004702628
tp23
sI750
(F0.0487801991403
F0.0006338637509672504
tp24
sI500
(F0.458400011063
F0.00060883288233962
tp25
sI1400
(F0.00107907003257
F0.0006950364456084063
tp26
sI250
(F51.5999984741
F0.00058258528854587
tp27
sI1150
(F0.00420409999788
F0.0006330748558174445
tp28
ssI650
(dp29
I900
(F0.0179501995444
F0.0006255027957894103
tp30
sI650
(F0.107699997723
F0.0006223101338625829
tp31
sI400
(F1.64600002766
F0.0006013669400766649
tp32
sI1300
(F0.00178610999137
F0.0006857304454472871
tp33
sI1050
(F0.00728014018387
F0.0006328243527792853
tp34
sI800
(F0.0340402014554
F0.0006383804757581054
tp35
sI550
(F0.270700007677
F0.0006112707621251361
tp36
sI1450
(F0.000844091991894
F0.0006995256508417979
tp37
sI300
(F10.9300003052
F0.0005914986111138723
tp38
sI1200
(F0.00288712000474
F0.0007059907439433081
tp39
sI950
(F0.0130201997235
F0.0006339925788619951
tp40
sI700
(F0.0710003003478
F0.0006327677457690091
tp41
sI450
(F0.822438001633
F0.0006097310666631517
tp42
sI1350
(F0.00143509998452
F0.0006675792699701255
tp43
sI200
(F0.0
F0.0
tp44
sI1100
(F0.00504613015801
F0.0006921204746286845
tp45
sI850
(F0.0238901991397
F0.0006469054489511497
tp46
sI600
(F0.165000006557
F0.0006258242175543673
tp47
sI1500
(F0.000668087974191
F0.0006986490073634494
tp48
sI350
(F3.79099988937
F0.0005933289542706363
tp49
sI1250
(F0.00229210988618
F0.0006926020473851451
tp50
sI1000
(F0.00889015011489
F0.0006906823755108184
tp51
sI750
(F0.0480701997876
F0.000640361390965978
tp52
sI500
(F0.457801014185
F0.0006093498951648679
tp53
sI1400
(F0.00105510000139
F0.0007095630736553003
tp54
sI250
(F51.4000015259
F0.0005846886985957882
tp55
sI1150
(F0.00371713005006
F0.0007159959334640553
tp56
ssI400
(dp57
I900
(F0.0178302004933
F0.0006315745021617424
tp58
sI650
(F0.105499997735
F0.0006356057008497337
tp59
sI400
(F1.64699995518
F0.000600917441975179
tp60
sI1300
(F0.00184013997205
F0.0006756442547220631
tp61
sI1050
(F0.00699017988518
F0.0006624736524760771
tp62
sI800
(F0.0344403013587
F0.0006315769357954611
tp63
sI550
(F0.269600003958
F0.000613534857461532
tp64
sI1450
(F0.00084713101387
F0.0007053714127053532
tp65
sI300
(F10.9400997162
F0.0005907368458835948
tp66
sI1200
(F0.00279216002673
F0.0007299545801416517
tp67
sI950
(F0.0126801999286
F0.000652716049163572
tp68
sI700
(F0.0715003013611
F0.0006274099429797123
tp69
sI450
(F0.826000988483
F0.0006073975782055929
tp70
sI1350
(F0.00138614000753
F0.0006975788843459037
tp71
sI200
(F0.0
F0.0
tp72
sI1100
(F0.00525016989559
F0.0006699745093877034
tp73
sI850
(F0.0248802006245
F0.0006244081482486922
tp74
sI600
(F0.165999993682
F0.0006218735176445596
tp75
sI1500
(F0.000668125983793
F0.0007069819337341403
tp76
sI350
(F3.78201007843
F0.0005944299336540253
tp77
sI1250
(F0.00234015006572
F0.0006825459714732299
tp78
sI1000
(F0.0092701902613
F0.0006645149480606379
tp79
sI750
(F0.0480703003705
F0.0006410590273513506
tp80
sI500
(F0.456701010466
F0.0006093746096949325
tp81
sI1400
(F0.00105913996231
F0.0007127547131292606
tp82
sI250
(F51.2999992371
F0.0005822534199649344
tp83
sI1150
(F0.00393516011536
F0.000680178168494965
tp84
ssI1300
(dp85
I900
(F0.0176301002502
F0.0006374836127135752
tp86
sI650
(F0.106799997389
F0.0006293876558364341
tp87
sI400
(F1.64499998093
F0.0006032474234066434
tp88
sI1300
(F0.00187306001317
F0.0006549389722563366
tp89
sI1050
(F0.00654008984566
F0.000704072896346474
tp90
sI800
(F0.0340506993234
F0.0006366947061525207
tp91
sI550
(F0.27270001173
F0.0006079684373616803
tp92
sI1450
(F0.000858044018969
F0.0006904214549643089
tp93
sI300
(F11.0
F0.0005910136363636363
tp94
sI1200
(F0.00285906996578
F0.0007138090443488776
tp95
sI950
(F0.0132101001218
F0.0006254986657038375
tp96
sI700
(F0.071300201118
F0.0006320164500717473
tp97
sI450
(F0.824000000954
F0.0006101225721091543
tp98
sI1350
(F0.00141404999886
F0.0006776733501450073
tp99
sI200
(F0.0
F0.0
tp100
sI1100
(F0.00554708018899
F0.0006294753061133897
tp101
sI850
(F0.0259201992303
F0.0005961528251656558
tp102
sI600
(F0.168699994683
F0.0006138707958740428
tp103
sI1500
(F0.000671041023452
F0.0006965982461032604
tp104
sI350
(F3.78999996185
F0.000596944597037846
tp105
sI1250
(F0.00242905993946
F0.0006535120744500428
tp106
sI1000
(F0.00879009999335
F0.0006989727084615838
tp107
sI750
(F0.0484902001917
F0.0006378587813150382
tp108
sI500
(F0.451999992132
F0.0006180796567766609
tp109
sI1400
(F0.00104104995262
F0.000721803980787736
tp110
sI250
(F51.7999992371
F0.0005841254912283655
tp111
sI1150
(F0.00368808000349
F0.0007222321634778557
tp112
ssI1050
(dp113
I900
(F0.0173700992018
F0.0006469853666025941
tp114
sI650
(F0.107800997794
F0.0006232094449476353
tp115
sI400
(F1.65299999714
F0.0006005075630474601
tp116
sI1300
(F0.00183206994552
F0.0006695104643790521
tp117
sI1050
(F0.00671011023223
F0.0006855669789006113
tp118
sI800
(F0.0348801985383
F0.0006205698621879166
tp119
sI550
(F0.26859998703
F0.0006170216232418855
tp120
sI1450
(F0.000846058013849
F0.000698595120340634
tp121
sI300
(F10.9899997711
F0.0005900846346742832
tp122
sI1200
(F0.0027930799406
F0.0007308276323668356
tp123
sI950
(F0.0130500998348
F0.0006340120079339456
tp124
sI700
(F0.0709007009864
F0.0006334944418760475
tp125
sI450
(F0.822000026703
F0.000610733556802411
tp126
sI1350
(F0.00141806004103
F0.000675637823701804
tp127
sI200
(F0.0
F0.0
tp128
sI1100
(F0.00511710019782
F0.0006824783304981603
tp129
sI850
(F0.0240001995116
F0.0006469446219601401
tp130
sI600
(F0.16859999299
F0.0006137841299088182
tp131
sI1500
(F0.000673052971251
F0.000694306421575441
tp132
sI350
(F3.77800011635
F0.0005951535020523797
tp133
sI1250
(F0.00235607009381
F0.0006737830101789912
tp134
sI1000
(F0.00928010977805
F0.000662107469303139
tp135
sI750
(F0.0480801984668
F0.0006421853691248915
tp136
sI500
(F0.459899991751
F0.0006068928136687516
tp137
sI1400
(F0.0010820600437
F0.0006939272957833921
tp138
sI250
(F51.7000007629
F0.0005832765871376846
tp139
sI1150
(F0.00391808990389
F0.0006788614006430097
tp140
ssI800
(dp141
I900
(F0.0178501997143
F0.0006294775509429438
tp142
sI650
(F0.106700003147
F0.0006292717715059207
tp143
sI400
(F1.64999997616
F0.000600700008679205
tp144
sI1300
(F0.00181009003427
F0.0006777121451280349
tp145
sI1050
(F0.00719011994079
F0.0006410296403892237
tp146
sI800
(F0.0330902002752
F0.0006553904122560927
tp147
sI550
(F0.268004000187
F0.0006163676657241655
tp148
sI1450
(F0.000878072984051
F0.0006735351283346735
tp149
sI300
(F10.9600000381
F0.00059107664028102
tp150
sI1200
(F0.00280510005541
F0.0007268475133597302
tp151
sI950
(F0.0128701003268
F0.000641113883379615
tp152
sI700
(F0.0710003003478
F0.0006338973184554222
tp153
sI450
(F0.825001001358
F0.0006073410810110906
tp154
sI1350
(F0.00151407998055
F0.0006325570724817943
tp155
sI200
(F0.0
F0.0
tp156
sI1100
(F0.00561610981822
F0.000621426594736023
tp157
sI850
(F0.0241301991045
F0.0006430033972287649
tp158
sI600
(F0.166700005531
F0.0006195620670258081
tp159
sI1500
(F0.000675070972648
F0.0006919302101937058
tp160
sI350
(F3.78999996185
F0.0005960686075831181
tp161
sI1250
(F0.00229309010319
F0.0006927377157095425
tp162
sI1000
(F0.0093901399523
F0.0006547570144036094
tp163
sI750
(F0.0483801998198
F0.0006361879470246313
tp164
sI500
(F0.454300999641
F0.0006145595105901744
tp165
sI1400
(F0.00105507997796
F0.0007108295254072513
tp166
sI250
(F51.4000015259
F0.0005836342239189209
tp167
sI1150
(F0.00397810991853
F0.000670021707440636
tp168
ssI550
(dp169
I900
(F0.0173601992428
F0.0006474522465323466
tp170
sI650
(F0.108000002801
F0.0006204935024259047
tp171
sI400
(F1.64944005013
F0.0005986352762091459
tp172
sI1300
(F0.00182811997365
F0.0006713891963826802
tp173
sI1050
(F0.00671016005799
F0.0006865007630503328
tp174
sI800
(F0.0346402004361
F0.0006268439479747044
tp175
sI550
(F0.269100010395
F0.0006151504779097391
tp176
sI1450
(F0.000838107021991
F0.0007035354489683918
tp177
sI300
(F10.9499998093
F0.0005909214714784224
tp178
sI1200
(F0.00283113005571
F0.0007196808199929291
tp179
sI950
(F0.0130302002653
F0.0006325942680981675
tp180
sI700
(F0.0724003016949
F0.0006198924444973888
tp181
sI450
(F0.826000988483
F0.0006065682813771981
tp182
sI1350
(F0.00143410998862
F0.0006686265402298081
tp183
sI200
(F0.0
F0.0
tp184
sI1100
(F0.00538715021685
F0.0006477877652427021
tp185
sI850
(F0.0241301991045
F0.0006427215926746229
tp186
sI600
(F0.168500006199
F0.0006132165946508625
tp187
sI1500
(F0.000671098008752
F0.000695132445509003
tp188
sI350
(F3.77600002289
F0.0005958712887607273
tp189
sI1250
(F0.00226011988707
F0.0007022326599044008
tp190
sI1000
(F0.00878017023206
F0.0006996390545560919
tp191
sI750
(F0.0473802983761
F0.000650042339444954
tp192
sI500
(F0.452201008797
F0.0006143816457621382
tp193
sI1400
(F0.00105811003596
F0.0007066627993199249
tp194
sI250
(F51.4000015259
F0.0005841614612573546
tp195
sI1150
(F0.00397713994607
F0.000670393809660796
tp196
ssI1450
(dp197
I900
(F0.018035100773
F0.0006239554822364397
tp198
sI650
(F0.10719999671
F0.0006269002058069186
tp199
sI400
(F1.65600001812
F0.0006003182301462764
tp200
sI1300
(F0.00182104995474
F0.0006741001238350246
tp201
sI1050
(F0.00709008984268
F0.0006505178498918163
tp202
sI800
(F0.0332901999354
F0.0006517533701240385
tp203
sI550
(F0.273600012064
F0.0006058369615905808
tp204
sI1450
(F0.000840040971525
F0.000703768054225681
tp205
sI300
(F11.0100002289
F0.0005906003510273916
tp206
sI1200
(F0.00289606000297
F0.0007077063313253566
tp207
sI950
(F0.0139001002535
F0.0005933784540815218
tp208
sI700
(F0.072100199759
F0.0006246029851585615
tp209
sI450
(F0.827000021935
F0.0006077557275318961
tp210
sI1350
(F0.00139204994775
F0.0006886168140370163
tp211
sI200
(F0.0
F0.0
tp212
sI1100
(F0.00533208018169
F0.0006541480775134348
tp213
sI850
(F0.0251502003521
F0.0006167783867656054
tp214
sI600
(F0.169400006533
F0.0006111747107862787
tp215
sI1500
(F0.000671037007123
F0.0006966247688844904
tp216
sI350
(F3.78999996185
F0.00059715831735662
tp217
sI1250
(F0.00231205997989
F0.0006876205694610216
tp218
sI1000
(F0.00879009999335
F0.0006989761213920423
tp219
sI750
(F0.0491801984608
F0.0006284338202627345
tp220
sI500
(F0.455000013113
F0.0006142329493309085
tp221
sI1400
(F0.00110503996257
F0.0006805600027812214
tp222
sI250
(F51.9000015259
F0.0005830828344946802
tp223
sI1150
(F0.0038230700884
F0.0006962754902340912
tp224
ssI300
(dp225
I900
(F0.0176902003586
F0.0006463465516625095
tp226
sI650
(F0.106600001454
F0.0006305966142881099
tp227
sI400
(F1.64499998093
F0.0006018176361560258
tp228
sI1300
(F0.00187417003326
F0.0006953584663463706
tp229
sI1050
(F0.00680021010339
F0.0006921212622024296
tp230
sI800
(F0.0346703007817
F0.0006321000829495957
tp231
sI550
(F0.267300009727
F0.0006195211147546506
tp232
sI1450
(F0.000878151971847
F0.000719676115593931
tp233
sI300
(F10.9300003052
F0.0005898645763928025
tp234
sI1200
(F0.00288418005221
F0.0007216297049156826
tp235
sI950
(F0.0131702004001
F0.0006416614586924459
tp236
sI700
(F0.0692002996802
F0.0006511778158222821
tp237
sI450
(F0.826000988483
F0.0006075561736574465
tp238
sI1350
(F0.00143116002437
F0.0007075519038800414
tp239
sI200
(F0.0
F0.0
tp240
sI1100
(F0.0057001998648
F0.0006440300493092984
tp241
sI850
(F0.0237502995878
F0.0006580085418386766
tp242
sI600
(F0.167099997401
F0.0006188031215336283
tp243
sI1500
(F0.000667152984533
F0.0007291685884318148
tp244
sI350
(F3.78200006485
F0.0005942913700317834
tp245
sI1250
(F0.00221418007277
F0.000725573326107195
tp246
sI1000
(F0.00877021998167
F0.0007081065256036443
tp247
sI750
(F0.0476802997291
F0.0006509313107580551
tp248
sI500
(F0.458200991154
F0.0006075150542536533
tp249
sI1400
(F0.00106516003143
F0.0007253201182950812
tp250
sI250
(F51.2004013062
F0.0005821009062362754
tp251
sI1150
(F0.00391718978062
F0.0006994197762780745
tp252
ssI1200
(dp253
I900
(F0.0173901002854
F0.000646298745582046
tp254
sI650
(F0.106399998069
F0.0006318947483100447
tp255
sI400
(F1.65499997139
F0.0005997299197330954
tp256
sI1300
(F0.00177805998828
F0.0006899992171730936
tp257
sI1050
(F0.00664009992033
F0.0006919910927743454
tp258
sI800
(F0.0337002985179
F0.0006407984780470033
tp259
sI550
(F0.267699986696
F0.0006198281966611667
tp260
sI1450
(F0.000855049991515
F0.0006936834172105769
tp261
sI300
(F11.0100002289
F0.0005910145199561106
tp262
sI1200
(F0.00298306997865
F0.0006838089668024289
tp263
sI950
(F0.0137601001188
F0.0006003691781801108
tp264
sI700
(F0.0712002962828
F0.0006320184374130297
tp265
sI450
(F0.818000018597
F0.0006141087879943996
tp266
sI1350
(F0.00137605995405
F0.0006956957051053135
tp267
sI200
(F0.0
F0.0
tp268
sI1100
(F0.00518108997494
F0.0006725515319853817
tp269
sI850
(F0.0244401991367
F0.0006320120353195141
tp270
sI600
(F0.165800005198
F0.0006244873145591974
tp271
sI1500
(F0.000666046980768
F0.0007006878095324022
tp272
sI350
(F3.77900004387
F0.0005968907048992868
tp273
sI1250
(F0.00243106996641
F0.0006526796932723085
tp274
sI1000
(F0.00939011014998
F0.0006540370562120702
tp275
sI750
(F0.0484825000167
F0.0006378631462764438
tp276
sI500
(F0.456999987364
F0.0006110043932618194
tp277
sI1400
(F0.00104704999831
F0.0007189666216656832
tp278
sI250
(F51.7999992371
F0.0005823938309712017
tp279
sI1150
(F0.00397808011621
F0.000668319873490364
tp280
ssI950
(dp281
I900
(F0.0176100991666
F0.000637696579318478
tp282
sI650
(F0.105801001191
F0.0006334013784899856
tp283
sI400
(F1.65400004387
F0.0006001184846873048
tp284
sI1300
(F0.00181008002255
F0.0006782075845854431
tp285
sI1050
(F0.00708010978997
F0.0006504037559592013
tp286
sI800
(F0.0334901995957
F0.0006474162669004782
tp287
sI550
(F0.267699986696
F0.0006194807928336664
tp288
sI1450
(F0.000843064975925
F0.0007010432373276271
tp289
sI300
(F10.9899997711
F0.0005906606128482451
tp290
sI1200
(F0.00306308991276
F0.0006673914440069438
tp291
sI950
(F0.0128301000223
F0.0006426676320269143
tp292
sI700
(F0.070100300014
F0.0006425036696134674
tp293
sI450
(F0.82800000906
F0.0006060012010985858
tp294
sI1350
(F0.00137606996577
F0.0006961390218730432
tp295
sI200
(F0.0
F0.0
tp296
sI1100
(F0.00518110021949
F0.0006738800355310785
tp297
sI850
(F0.024050200358
F0.0006430008802340806
tp298
sI600
(F0.166902005672
F0.0006195551670194671
tp299
sI1500
(F0.000672061985824
F0.0006962973801088467
tp300
sI350
(F3.79299998283
F0.000594089114210522
tp301
sI1250
(F0.00229308009148
F0.0006928105153861592
tp302
sI1000
(F0.00925012025982
F0.0006635924536746992
tp303
sI750
(F0.0483801998198
F0.0006379965381492217
tp304
sI500
(F0.457899987698
F0.0006097248471300177
tp305
sI1400
(F0.0010510700522
F0.0007138391950465659
tp306
sI250
(F51.5
F0.0005827475728155339
tp307
sI1150
(F0.00382210011594
F0.0006962507310841397
tp308
ssI700
(dp309
I900
(F0.0171402003616
F0.0006552023758811927
tp310
sI650
(F0.105999998748
F0.0006336735923901824
tp311
sI400
(F1.65299999714
F0.0005999237759926085
tp312
sI1300
(F0.001797099947
F0.0006818151667331834
tp313
sI1050
(F0.0067201401107
F0.0006853607103617737
tp314
sI800
(F0.0335102006793
F0.0006467642556789587
tp315
sI550
(F0.270000994205
F0.0006133088527602668
tp316
sI1450
(F0.000867085007485
F0.0006810727839856186
tp317
sI300
(F10.9499998093
F0.0005903351700983486
tp318
sI1200
(F0.00285811000504
F0.000713114609446768
tp319
sI950
(F0.0134001998231
F0.0006162154377552956
tp320
sI700
(F0.0712002962828
F0.000631826022483384
tp321
sI450
(F0.824002027512
F0.0006073455929605851
tp322
sI1350
(F0.00149908999447
F0.0006391404142075836
tp323
sI200
(F0.0
F0.0
tp324
sI1100
(F0.00538713019341
F0.0006474244866527502
tp325
sI850
(F0.024050200358
F0.0006426807165811637
tp326
sI600
(F0.167300000787
F0.0006175911507110326
tp327
sI1500
(F0.000666083011311
F0.0006997160895646808
tp328
sI350
(F3.78900003433
F0.0005960253311001454
tp329
sI1250
(F0.00227610999718
F0.0006978441296632941
tp330
sI1000
(F0.00858015008271
F0.000714900082267864
tp331
sI750
(F0.0483702011406
F0.0006361871415533726
tp332
sI500
(F0.459504008293
F0.0006069174478716912
tp333
sI1400
(F0.00106209004298
F0.0007050061385559004
tp334
sI250
(F51.4000015259
F0.0005834707997992588
tp335
sI1150
(F0.00377211999148
F0.0007055608002956899
tp336
ssI450
(dp337
I900
(F0.0175101999193
F0.0006418830197142214
tp338
sI650
(F0.108400002122
F0.0006187527554151906
tp339
sI400
(F1.64699995518
F0.0006010000163550824
tp340
sI1300
(F0.00187212997116
F0.0006598206422787025
tp341
sI1050
(F0.0068901698105
F0.0006700429926943961
tp342
sI800
(F0.0339101999998
F0.0006393179633304393
tp343
sI550
(F0.271499991417
F0.0006093922844582467
tp344
sI1450
(F0.0008551190258
F0.0006936414488557154
tp345
sI300
(F10.9200000763
F0.0005915064061234489
tp346
sI1200
(F0.00285815005191
F0.0007127827311370811
tp347
sI950
(F0.0126901995391
F0.0006503609320382148
tp348
sI700
(F0.0714002996683
F0.0006291682277062576
tp349
sI450
(F0.818000972271
F0.000611342794143191
tp350
sI1350
(F0.00137112999801
F0.0006995346913801566
tp351
sI200
(F0.0
F0.0
tp352
sI1100
(F0.005110159982
F0.0006842349383025637
tp353
sI850
(F0.0245702005923
F0.0006314478362403824
tp354
sI600
(F0.165999993682
F0.000621789180291952
tp355
sI1500
(F0.000674115028232
F0.0006949140434216516
tp356
sI350
(F3.76313996315
F0.0005974319376944166
tp357
sI1250
(F0.00236213998869
F0.0006722082550579877
tp358
sI1000
(F0.0091301901266
F0.0006725555453779679
tp359
sI750
(F0.0476802997291
F0.0006474665674376774
tp360
sI500
(F0.456701010466
F0.0006091950611541566
tp361
sI1400
(F0.00112311996054
F0.0006724232731442965
tp362
sI250
(F51.4000015259
F0.0005838365585432645
tp363
sI1150
(F0.00402515009046
F0.0006624299566666053
tp364
ssI1350
(dp365
I900
(F0.0175902005285
F0.0006384634434271395
tp366
sI650
(F0.106799997389
F0.0006293876558364341
tp367
sI400
(F1.64999997616
F0.0006017763723311205
tp368
sI1300
(F0.00178305001464
F0.0006876363477933899
tp369
sI1050
(F0.0070000900887
F0.0006592158017293433
tp370
sI800
(F0.0340202003717
F0.0006390556129141813
tp371
sI550
(F0.267599999905
F0.0006173729449127445
tp372
sI1450
(F0.00086004199693
F0.000687157141290277
tp373
sI300
(F11.0
F0.0005910136363636363
tp374
sI1200
(F0.00301807001233
F0.0006758922064982751
tp375
sI950
(F0.0128900995478
F0.0006406769761067895
tp376
sI700
(F0.0717002004385
F0.0006282883412388747
tp377
sI450
(F0.828999996185
F0.0006069710522504157
tp378
sI1350
(F0.00138104998041
F0.0006937026274136595
tp379
sI200
(F0.0
F0.0
tp380
sI1100
(F0.00532808015123
F0.0006547836933711698
tp381
sI850
(F0.024313500151
F0.0006342237812010697
tp382
sI600
(F0.166400000453
F0.0006220913444602923
tp383
sI1500
(F0.000661041995045
F0.000708369518895881
tp384
sI350
(F3.77999997139
F0.0005971587346784951
tp385
sI1250
(F0.00231606001034
F0.0006854744665130411
tp386
sI1000
(F0.00890509970486
F0.00035343006864733137
tp387
sI750
(F0.0484902001917
F0.0006378567190426698
tp388
sI500
(F0.456999987364
F0.0006126192729563613
tp389
sI1400
(F0.00110804999713
F0.0006786661269326941
tp390
sI250
(F51.7999992371
F0.0005841274217303245
tp391
sI1150
(F0.003882070072
F0.0006850082431999955
tp392
ssI200
(dp393
I900
(F0.0175803005695
F0.0006214797043319687
tp394
sI650
(F0.110100001097
F0.000609202537072705
tp395
sI400
(F1.64600002766
F0.000600635469858094
tp396
sI1300
(F0.00187421997543
F0.0005942578857342875
tp397
sI1050
(F0.00646026991308
F0.0006282879902249894
tp398
sI800
(F0.0326502993703
F0.0006429251922601015
tp399
sI550
(F0.270500987768
F0.0006104783622514199
tp400
sI1450
(F0.000859207008034
F0.0005936136405207453
tp401
sI300
(F10.9099998474
F0.0005906324555573339
tp402
sI1200
(F0.00301523995586
F0.0006018691800873249
tp403
sI950
(F0.0132302995771
F0.000609967291592418
tp404
sI700
(F0.0692003965378
F0.0006400960430306837
tp405
sI450
(F0.820001006126
F0.0006102833975341541
tp406
sI1350
(F0.00139422004577
F0.0005946392770031704
tp407
sI200
(F0.0
F0.0
tp408
sI1100
(F0.00504024978727
F0.0006148286554818708
tp409
sI850
(F0.0237403009087
F0.0006308555252773378
tp410
sI600
(F0.164199993014
F0.0006257125722973692
tp411
sI1500
(F0.000675202987622
F0.0005955379454350302
tp412
sI350
(F3.76699995995
F0.0005952774154077144
tp413
sI1250
(F0.00227123009972
F0.0006003046543668496
tp414
sI1000
(F0.00899028033018
F0.0006238437283398602
tp415
sI750
(F0.0476804003119
F0.0006365131123369679
tp416
sI500
(F0.455101013184
F0.0006102864901505005
tp417
sI1400
(F0.00113321002573
F0.0005944767383839831
tp418
sI250
(F51.1001014709
F0.0005831827949885896
tp419
sI1150
(F0.0040242401883
F0.0006029336934346822
tp420
ssI1100
(dp421
I900
(F0.0183400996029
F0.0006126684283777424
tp422
sI650
(F0.107500001788
F0.0006256678965702865
tp423
sI400
(F1.65199995041
F0.000600897717795713
tp424
sI1300
(F0.0018520699814
F0.0006625343601068745
tp425
sI1050
(F0.00703010009602
F0.0006552040422024306
tp426
sI800
(F0.0348902009428
F0.0006205696560904474
tp427
sI550
(F0.27349999547
F0.0006060182915731732
tp428
sI1450
(F0.000842056004331
F0.0007019936880203518
tp429
sI300
(F10.9899997711
F0.0005908526055728991
tp430
sI1200
(F0.00276707997546
F0.0007381897227818408
tp431
sI950
(F0.013410099782
F0.0006162534309470659
tp432
sI700
(F0.07173140347
F0.0006292223184909058
tp433
sI450
(F0.82800000906
F0.0006060012010985858
tp434
sI1350
(F0.0013560600346
F0.0007061427780241729
tp435
sI200
(F0.0
F0.0
tp436
sI1100
(F0.00547708990052
F0.0006378168084603351
tp437
sI850
(F0.0236201994121
F0.0006549690682151851
tp438
sI600
(F0.168099999428
F0.0006157227861522512
tp439
sI1500
(F0.000663054001052
F0.0007048943212143373
tp440
sI350
(F3.79399991035
F0.0005943120857353923
tp441
sI1250
(F0.00226007006131
F0.0007029560840601231
tp442
sI1000
(F0.00856010988355
F0.0007176671892735425
tp443
sI750
(F0.0473802983761
F0.0006500064595527147
tp444
sI500
(F0.454400002956
F0.0006145950664244212
tp445
sI1400
(F0.00111106003169
F0.0006761668843917263
tp446
sI250
(F51.7000007629
F0.0005846518288968882
tp447
sI1150
(F0.00397808011621
F0.0006683148459395316
tp448
ssI850
(dp449
I900
(F0.0182402003556
F0.0006150535510184624
tp450
sI650
(F0.107000000775
F0.0006274056029323425
tp451
sI400
(F1.64999997616
F0.0006003090995826478
tp452
sI1300
(F0.00182908005081
F0.0006701784317516095
tp453
sI1050
(F0.00699011981487
F0.0006590931374594303
tp454
sI800
(F0.0332901999354
F0.0006512577287631571
tp455
sI550
(F0.269205003977
F0.0006152485932770801
tp456
sI1450
(F0.000831074023154
F0.0007119642577137289
tp457
sI300
(F10.9600000381
F0.0005910757278722641
tp458
sI1200
(F0.00288709998131
F0.000706265807627068
tp459
sI950
(F0.0128301000223
F0.0006426715291126668
tp460
sI700
(F0.071700297296
F0.0006282902818941751
tp461
sI450
(F0.83000099659
F0.0006034269863020479
tp462
sI1350
(F0.00147408002522
F0.0006494993376340679
tp463
sI200
(F0.0
F0.0
tp464
sI1100
(F0.00525711011142
F0.0006639275050408299
tp465
sI850
(F0.0242101997137
F0.0006385614403358972
tp466
sI600
(F0.166001006961
F0.0006213456284890638
tp467
sI1500
(F0.000674066017382
F0.0006929974037472875
tp468
sI350
(F3.78200006485
F0.0005957297623921007
tp469
sI1250
(F0.00234008999541
F0.000675503934934367
tp470
sI1000
(F0.00939012970775
F0.0006547566637898129
tp471
sI750
(F0.0490702018142
F0.0006284424938125304
tp472
sI500
(F0.456800997257
F0.0006109662668774378
tp473
sI1400
(F0.00106408004649
F0.0007055371468306688
tp474
sI250
(F51.5
F0.0005837961165048543
tp475
sI1150
(F0.00397509988397
F0.0006670926712290917
tp476
ssI600
(dp477
I900
(F0.0171301998198
F0.0006556432568298627
tp478
sI650
(F0.105999998748
F0.0006328849131355841
tp479
sI400
(F1.64900994301
F0.0006005864332098779
tp480
sI1300
(F0.0018181100022
F0.0006741891296548526
tp481
sI1050
(F0.00683014979586
F0.0006740276769318404
tp482
sI800
(F0.0328801982105
F0.0006606347036272834
tp483
sI550
(F0.272399991751
F0.0006072100037036539
tp484
sI1450
(F0.000871094991453
F0.0006785735261937767
tp485
sI300
(F10.9499998093
F0.0005909187317523473
tp486
sI1200
(F0.00285211997107
F0.0007149699243664642
tp487
sI950
(F0.0133602004498
F0.0006178051018780605
tp488
sI700
(F0.0712002962828
F0.000631835853903147
tp489
sI450
(F0.82600402832
F0.0006073505489075507
tp490
sI1350
(F0.00144709995948
F0.0006624621842602224
tp491
sI200
(F0.0
F0.0
tp492
sI1100
(F0.00525014009327
F0.0006647003580863364
tp493
sI850
(F0.0242101997137
F0.0006382392620766413
tp494
sI600
(F0.164900004864
F0.0006262279985083506
tp495
sI1500
(F0.000658096978441
F0.000707685972215345
tp496
sI350
(F3.79099988937
F0.0005916512966115492
tp497
sI1250
(F0.00219812011346
F0.0007192236631288934
tp498
sI1000
(F0.00913016032428
F0.0006726847921462247
tp499
sI750
(F0.0490702018142
F0.0006296448528373291
tp500
sI500
(F0.457801014185
F0.000607930064321642
tp501
sI1400
(F0.00111910002306
F0.0006701974663079676
tp502
sI250
(F51.4000015259
F0.0005857470643231236
tp503
sI1150
(F0.00388212990947
F0.0006887301719290036
tp504
ssI1500
(dp505
I900
(F0.017650200054
F0.0006379361120866307
tp506
sI650
(F0.10719999671
F0.000626281735638684
tp507
sI400
(F1.65600001812
F0.0006008272881117206
tp508
sI1300
(F0.00186205003411
F0.0006588974396632789
tp509
sI1050
(F0.0070000900887
F0.0006603400729744669
tp510
sI800
(F0.0334901995957
F0.0006476670865462673
tp511
sI550
(F0.272899985313
F0.0006077867677778097
tp512
sI1450
(F0.000867036986165
F0.0006823330601117113
tp513
sI300
(F11.029999733
F0.0005906001956201498
tp514
sI1200
(F0.00295505998656
F0.0006902330271726233
tp515
sI950
(F0.0127502996475
F0.0006442805445447473
tp516
sI700
(F0.0695002004504
F0.0006483664753191465
tp517
sI450
(F0.833000004292
F0.0006030756271447772
tp518
sI1350
(F0.00136604998261
F0.0007014845812370096
tp519
sI200
(F0.0
F0.0
tp520
sI1100
(F0.00532806990668
F0.000654784952356957
tp521
sI850
(F0.0244600996375
F0.0006353776243892866
tp522
sI600
(F0.170499995351
F0.000607366585475937
tp523
sI1500
(F0.000671035028063
F0.0006955732271492971
tp524
sI350
(F3.79299998283
F0.0005949617743779313
tp525
sI1250
(F0.00227705994621
F0.0006975749596069306
tp526
sI1000
(F0.00913009978831
F0.0006726815853495542
tp527
sI750
(F0.0491801984608
F0.0006286046207121612
tp528
sI500
(F0.458600014448
F0.0006106585067099998
tp529
sI1400
(F0.00103405001573
F0.000726788828942132
tp530
sI250
(F51.9000015259
F0.0005844527766509347
tp531
sI1150
(F0.00403606984764
F0.0006605237522236728
tp532
ssI350
(dp533
I900
(F0.0179402008653
F0.0006301657425623785
tp534
sI650
(F0.107299998403
F0.0006259720503231814
tp535
sI400
(F1.64600002766
F0.0006017436107872247
tp536
sI1300
(F0.00192714994773
F0.0006665957682811202
tp537
sI1050
(F0.00680019985884
F0.0006843225341311975
tp538
sI800
(F0.0337103009224
F0.0006447050131658305
tp539
sI550
(F0.269800007343
F0.0006133876778943449
tp540
sI1450
(F0.00084314198466
F0.0007165044689876421
tp541
sI300
(F10.9301996231
F0.000590585737003144
tp542
sI1200
(F0.00311716995202
F0.0006703388112175005
tp543
sI950
(F0.0129901999608
F0.0006412903592815032
tp544
sI700
(F0.0710003003478
F0.0006335114045949768
tp545
sI450
(F0.824001014233
F0.0006082213387401055
tp546
sI1350
(F0.00143415003549
F0.0006919861767886278
tp547
sI200
(F0.0
F0.0
tp548
sI1100
(F0.00524618988857
F0.000673252412707225
tp549
sI850
(F0.0244203004986
F0.0006377644698062938
tp550
sI600
(F0.167099997401
F0.0006173608713615853
tp551
sI1500
(F0.000678136013448
F0.0007122892611823205
tp552
sI350
(F3.77999997139
F0.0005947910097928494
tp553
sI1250
(F0.00230016000569
F0.0007014512016593378
tp554
sI1000
(F0.00866021029651
F0.0007097668289275939
tp555
sI750
(F0.0479803010821
F0.0006443373489278423
tp556
sI500
(F0.456701010466
F0.0006080060994756047
tp557
sI1400
(F0.00106815004256
F0.0007163282025118866
tp558
sI250
(F51.0999984741
F0.0005820919938985162
tp559
sI1150
(F0.00366717996076
F0.0007270791257943665
tp560
ssI1250
(dp561
I900
(F0.0175301004201
F0.0006412855448968313
tp562
sI650
(F0.106799997389
F0.0006293876558364341
tp563
sI400
(F1.64999997616
F0.0006020703117293069
tp564
sI1300
(F0.00174906000029
F0.000701714063437791
tp565
sI1050
(F0.0069200899452
F0.0006670231220335093
tp566
sI800
(F0.0342912003398
F0.0006304299582919204
tp567
sI550
(F0.272000014782
F0.0006096359962807379
tp568
sI1450
(F0.000843049027026
F0.00070205762776089
tp569
sI300
(F11.0100002289
F0.0005898601148938257
tp570
sI1200
(F0.00298506999388
F0.0006833340605687653
tp571
sI950
(F0.0123800998554
F0.0006671190132927367
tp572
sI700
(F0.072100199759
F0.0006246057590759802
tp573
sI450
(F0.824000000954
F0.0006101225721091543
tp574
sI1350
(F0.00142604997382
F0.0006713067687492101
tp575
sI200
(F0.0
F0.0
tp576
sI1100
(F0.00525808008388
F0.000663810734016895
tp577
sI850
(F0.0249102003872
F0.0006229616686654158
tp578
sI600
(F0.169799998403
F0.0006096466488433786
tp579
sI1500
(F0.000668044027407
F0.0006996440067194027
tp580
sI350
(F3.80399990082
F0.0005945794056178721
tp581
sI1250
(F0.00223307008855
F0.0007087865303089257
tp582
sI1000
(F0.00892009958625
F0.0006883723595939578
tp583
sI750
(F0.047900300473
F0.0006459980353868958
tp584
sI500
(F0.460000008345
F0.0006067521629057679
tp585
sI1400
(F0.00105704995804
F0.0007120420319542913
tp586
sI250
(F51.7999992371
F0.0005823938309712017
tp587
sI1150
(F0.00408608000726
F0.0006502809527172646
tp588
ssI1000
(dp589
I900
(F0.0183301009238
F0.0006122443104188578
tp590
sI650
(F0.104339003563
F0.0006394368138633362
tp591
sI400
(F1.64400005341
F0.0006036404913379326
tp592
sI1300
(F0.00181906996295
F0.0006744050668675244
tp593
sI1050
(F0.00708010978997
F0.0006504023435517251
tp594
sI800
(F0.0336202010512
F0.0006470127875461823
tp595
sI550
(F0.27009999752
F0.0006136134821242555
tp596
sI1450
(F0.000848061987199
F0.0006977579574748068
tp597
sI300
(F10.970000267
F0.0005906617905463357
tp598
sI1200
(F0.00282208994031
F0.0007230634186576811
tp599
sI950
(F0.0134001001716
F0.00061625733347141
tp600
sI700
(F0.0698003023863
F0.0006444484975301331
tp601
sI450
(F0.827000021935
F0.000607570721490854
tp602
sI1350
(F0.00148606998846
F0.0006445591442113846
tp603
sI200
(F0.0
F0.0
tp604
sI1100
(F0.00523609993979
F0.0006668264624719966
tp605
sI850
(F0.0251401998103
F0.0006167214308952218
tp606
sI600
(F0.16859999299
F0.0006133096340409284
tp607
sI1500
(F0.000687053019647
F0.0006800159327442379
tp608
sI350
(F3.79299998283
F0.0005943105747968132
tp609
sI1250
(F0.00232308008708
F0.0006806050332889585
tp610
sI1000
(F0.00889012031257
F0.0006899692899911698
tp611
sI750
(F0.0483801998198
F0.0006379965381492217
tp612
sI500
(F0.456900000572
F0.0006111490471666071
tp613
sI1400
(F0.00106906995643
F0.0007030297647778039
tp614
sI250
(F51.5999984741
F0.000582746141263805
tp615
sI1150
(F0.00409408984706
F0.0006489794067191759
tp616
ssI750
(dp617
I900
(F0.0172402001917
F0.0006508393101723939
tp618
sI650
(F0.10909999907
F0.0006146287861741959
tp619
sI400
(F1.64999997616
F0.0006007012208004347
tp620
sI1300
(F0.00183208996896
F0.0006694048986558128
tp621
sI1050
(F0.00672012986615
F0.0006855016334139956
tp622
sI800
(F0.0335102006793
F0.0006467642556789587
tp623
sI550
(F0.269100993872
F0.0006154417998128113
tp624
sI1450
(F0.000883075001184
F0.000668922797279954
tp625
sI300
(F10.9499998093
F0.0005903351700983486
tp626
sI1200
(F0.00285811000504
F0.0007132160751004653
tp627
sI950
(F0.0127101996914
F0.000649518512725324
tp628
sI700
(F0.0700002983212
F0.0006413544095768988
tp629
sI450
(F0.824001014233
F0.0006073426990448936
tp630
sI1350
(F0.00141509005334
F0.0006764898090694115
tp631
sI200
(F0.0
F0.0
tp632
sI1100
(F0.00504611991346
F0.0006923299604278604
tp633
sI850
(F0.0238901991397
F0.0006468928915003623
tp634
sI600
(F0.167899996042
F0.0006156402765735807
tp635
sI1500
(F0.000673077011015
F0.0006948060806515615
tp636
sI350
(F3.77900004387
F0.0005962397390428586
tp637
sI1250
(F0.00226010009646
F0.0007027078147943916
tp638
sI1000
(F0.00878014042974
F0.0006988897329267104
tp639
sI750
(F0.0487801991403
F0.0006320679403403186
tp640
sI500
(F0.455821990967
F0.0006125483314389149
tp641
sI1400
(F0.00108507997356
F0.0006908476962675684
tp642
sI250
(F51.4000015259
F0.0005836342239189209
tp643
sI1150
(F0.00421511009336
F0.0006300499728781775
tp644
ssI500
(dp645
I900
(F0.0172301996499
F0.0006519193177233552
tp646
sI650
(F0.106200002134
F0.0006310150532336524
tp647
sI400
(F1.64700996876
F0.0006009872549497828
tp648
sI1300
(F0.00178613001481
F0.0006866913325626362
tp649
sI1050
(F0.00680015981197
F0.0006783811156731608
tp650
sI800
(F0.0342402011156
F0.0006346253611839869
tp651
sI550
(F0.271499991417
F0.0006093701850100342
tp652
sI1450
(F0.000847111979965
F0.000698102510631987
tp653
sI300
(F10.9399995804
F0.0005909214120613002
tp654
sI1200
(F0.00282113999128
F0.0007222399477863318
tp655
sI950
(F0.01346020028
F0.0006134782416476793
tp656
sI700
(F0.0702003017068
F0.0006404245979992008
tp657
sI450
(F0.823001027107
F0.0006089409168317397
tp658
sI1350
(F0.0014461199753
F0.0006645479050247097
tp659
sI200
(F0.0
F0.0
tp660
sI1100
(F0.0054661501199
F0.0006390823382772203
tp661
sI850
(F0.0231602005661
F0.0006704087020181878
tp662
sI600
(F0.167199999094
F0.0006182894770345112
tp663
sI1500
(F0.000673106987961
F0.0006940932249347997
tp664
sI350
(F3.76957011223
F0.0002528099946750251
tp665
sI1250
(F0.00232212990522
F0.0006816629838157284
tp666
sI1000
(F0.00889017991722
F0.0006899084222266163
tp667
sI750
(F0.0480703003705
F0.0006405868023012669
tp668
sI500
(F0.450700998306
F0.0006163798195347856
tp669
sI1400
(F0.00107212003786
F0.000698363964444223
tp670
sI250
(F51.2999992371
F0.0005840000086848655
tp671
sI1150
(F0.00402515009046
F0.0006615306113208057
tp672
ssI1400
(dp673
I900
(F0.0171901993454
F0.0006513711548665844
tp674
sI650
(F0.105800002813
F0.000635692799733423
tp675
sI400
(F1.65299999714
F0.0006009951613544139
tp676
sI1300
(F0.0018320500385
F0.000669577781294864
tp677
sI1050
(F0.00728008989245
F0.0006337929981860714
tp678
sI800
(F0.0340502001345
F0.0006366893561378578
tp679
sI550
(F0.269400000572
F0.0006132368212666241
tp680
sI1450
(F0.00082904502051
F0.0007132507709125882
tp681
sI300
(F11.0200004578
F0.0005905997939767163
tp682
sI1200
(F0.00288805994205
F0.0007066993209812905
tp683
sI950
(F0.0130500998348
F0.0006329982225861338
tp684
sI700
(F0.0698001980782
F0.0006454193718695211
tp685
sI450
(F0.833000004292
F0.0006030756271447772
tp686
sI1350
(F0.00143305002712
F0.0006685007374971285
tp687
sI200
(F0.0
F0.0
tp688
sI1100
(F0.00554708018899
F0.0006293563245992393
tp689
sI850
(F0.0234703999013
F0.0006593965192362481
tp690
sI600
(F0.166500002146
F0.0006216996916866814
tp691
sI1500
(F0.000684035010636
F0.0006822033854175368
tp692
sI350
(F3.79299998283
F0.0005968204614414468
tp693
sI1250
(F0.00236905994825
F0.000670274300645275
tp694
sI1000
(F0.0090201003477
F0.0006804369977508072
tp695
sI750
(F0.0469201989472
F0.0006586033455393968
tp696
sI500
(F0.457500010729
F0.000612083045755106
tp697
sI1400
(F0.00108105002437
F0.0006952925239866067
tp698
sI250
(F51.9000015259
F0.0005842909269447104
tp699
sI1150
(F0.0040260697715
F0.0006605250656173333
tp700
ssI250
(dp701
I900
(F0.0176902990788
F0.0006584004005878051
tp702
sI650
(F0.107000000775
F0.0006313373786047994
tp703
sI400
(F1.64999997616
F0.0005992115238092138
tp704
sI1300
(F0.00189617997967
F0.0007090466171011812
tp705
sI1050
(F0.00698023010045
F0.0006915001268638442
tp706
sI800
(F0.0340402983129
F0.0006514367117516261
tp707
sI550
(F0.269800007343
F0.0006145700351638703
tp708
sI1450
(F0.000837174011394
F0.0007281019139438238
tp709
sI300
(F10.9099998474
F0.0005899385967025326
tp710
sI1200
(F0.0028582001105
F0.0007259638652931889
tp711
sI950
(F0.0126603003591
F0.0006754863437227281
tp712
sI700
(F0.0691004022956
F0.0006551770828530007
tp713
sI450
(F0.821000993252
F0.0006110065689604182
tp714
sI1350
(F0.001520180027
F0.0007099159183993147
tp715
sI200
(F0.0
F0.0
tp716
sI1100
(F0.00546522019431
F0.0006845378350711323
tp717
sI850
(F0.0236202999949
F0.0006712150143488101
tp718
sI600
(F0.165399998426
F0.0006265779987075802
tp719
sI1500
(F0.000673166010529
F0.0007301037074254167
tp720
sI350
(F3.76699995995
F0.0005936395072405793
tp721
sI1250
(F0.00227119005285
F0.0007228016862525508
tp722
sI1000
(F0.00890024006367
F0.0007048326736271498
tp723
sI750
(F0.0480703003705
F0.0006518952400645058
tp724
sI500
(F0.452100992203
F0.0006166520419287636
tp725
sI1400
(F0.00106218003202
F0.0007285930601879627
tp726
sI250
(F51.1004981995
F0.0005831684826957633
tp727
sI1150
(F0.00391720980406
F0.0007092752594258144
tp728
ssI1150
(dp729
I900
(F0.0170501004905
F0.0006588934772706758
tp730
sI650
(F0.106100000441
F0.0006337898182893374
tp731
sI400
(F1.64699995518
F0.0006028542969155614
tp732
sI1300
(F0.00179706001654
F0.0006825314617825391
tp733
sI1050
(F0.00662009976804
F0.0006952402775287285
tp734
sI800
(F0.0340502001345
F0.0006384162182346366
tp735
sI550
(F0.268400013447
F0.0006178054832055501
tp736
sI1450
(F0.000842052977532
F0.0007020365888766598
tp737
sI300
(F10.9899997711
F0.0005902748075626845
tp738
sI1200
(F0.0028590799775
F0.0007140478811597009
tp739
sI950
(F0.0120500996709
F0.000685597648619529
tp740
sI700
(F0.0707004964352
F0.0006357918581406188
tp741
sI450
(F0.824999988079
F0.0006093309178955562
tp742
sI1350
(F0.00149206002243
F0.0006419058118319991
tp743
sI200
(F0.0
F0.0
tp744
sI1100
(F0.0057500898838
F0.0006072583334458101
tp745
sI850
(F0.024620199576
F0.0006306650745080052
tp746
sI600
(F0.167500004172
F0.0006181492383348141
tp747
sI1500
(F0.000675047980621
F0.000693312199185387
tp748
sI350
(F3.77699995041
F0.000598933023484535
tp749
sI1250
(F0.0022160699591
F0.0007143637291319663
tp750
sI1000
(F0.0089201098308
F0.0006883693268885798
tp751
sI750
(F0.048320800066
F0.000636102878222571
tp752
sI500
(F0.456900000572
F0.000611004595426801
tp753
sI1400
(F0.00114704994485
F0.0006551911739974659
tp754
sI250
(F51.7000007629
F0.0005834390629573374
tp755
sI1150
(F0.00386807997711
F0.0006860974994583286
tp756
ss.