(dp0
I900
(dp1
I900
(F0.0151830860211
F0.0432625953148233
tp2
sI650
(F0.0955546053986
F0.03377256500195104
tp3
sI400
(F1.50443570557
F0.0332076941452753
tp4
sI1300
(F0.0014357208315
F0.06387450810391058
tp5
sI1050
(F0.0059690815455
F0.05108004475476804
tp6
sI800
(F0.029621211466
F0.03972355956948625
tp7
sI550
(F0.241604371273
F0.03067794230632906
tp8
sI1450
(F0.000638710230996
F0.07376553688537214
tp9
sI300
(F9.99326737419
F0.042118407623424156
tp10
sI1200
(F0.00233809853354
F0.05725121918635768
tp11
sI950
(F0.0107602128142
F0.045699420593156695
tp12
sI700
(F0.0630545071451
F0.03523589310114299
tp13
sI450
(F0.750475321185
F0.03203690156384659
tp14
sI1350
(F0.00107464104486
F0.06655677904357167
tp15
sI200
(F0.0
F0.0
tp16
sI1100
(F0.00409452604648
F0.05326016564468451
tp17
sI850
(F0.0202812074704
F0.04212096786800197
tp18
sI600
(F0.147166586699
F0.032696385983332014
tp19
sI1500
(F0.000502378037174
F0.0784198286101726
tp20
sI350
(F3.45262380889
F0.03671826044371665
tp21
sI1250
(F0.00175336509436
F0.06034047197376077
tp22
sI1000
(F0.00735971636009
F0.04889104743183334
tp23
sI750
(F0.0428823085221
F0.03693185188115061
tp24
sI500
(F0.415570419382
F0.031243501781980737
tp25
sI1400
(F0.000819815688325
F0.07010754355680865
tp26
sI250
(F46.8425743562
F0.05267304297257154
tp27
sI1150
(F0.0034054359511
F0.05616149361147796
tp28
ssI650
(dp29
I900
(F0.0153709108252
F0.04325823200664807
tp30
sI650
(F0.0961129172464
F0.0332898428960114
tp31
sI400
(F1.50144649332
F0.033240832166346754
tp32
sI1300
(F0.00139424757468
F0.06337027744543755
tp33
sI1050
(F0.00603910413859
F0.05089250555476568
tp34
sI800
(F0.0296362623583
F0.03882100630506079
tp35
sI550
(F0.244692232668
F0.030396589262854403
tp36
sI1450
(F0.000631570180123
F0.07379815584393619
tp37
sI300
(F9.96960417036
F0.043241730371270395
tp38
sI1200
(F0.00231223942444
F0.05720232002446429
tp39
sI950
(F0.0110360575291
F0.0457978483555638
tp40
sI700
(F0.0629594409062
F0.03540802824077287
tp41
sI450
(F0.74863803559
F0.03201860242060641
tp42
sI1350
(F0.00110458343305
F0.0667770771832327
tp43
sI200
(F0.0
F0.0
tp44
sI1100
(F0.00413548901768
F0.05297488388904047
tp45
sI850
(F0.0206819031316
F0.04200167603549729
tp46
sI600
(F0.148169378645
F0.03265949176235746
tp47
sI1500
(F0.000492538883601
F0.07854669607778647
tp48
sI350
(F3.45789142985
F0.03661414658079422
tp49
sI1250
(F0.00180802068516
F0.06040599675182092
tp50
sI1000
(F0.00745011539869
F0.048613141498544205
tp51
sI750
(F0.0422992365583
F0.037420904147013656
tp52
sI500
(F0.414490776365
F0.03218017249376434
tp53
sI1400
(F0.000801590639258
F0.06955465309139533
tp54
sI250
(F46.6851488418
F0.05426843541348163
tp55
sI1150
(F0.0030180721129
F0.055540640065399945
tp56
ssI400
(dp57
I900
(F0.015264479308
F0.04335378969777041
tp58
sI650
(F0.0941049945829
F0.034354910837829954
tp59
sI400
(F1.50242663542
F0.03320699836664774
tp60
sI1300
(F0.00143608153917
F0.06411458247149052
tp61
sI1050
(F0.00579561249615
F0.05046247331119541
tp62
sI800
(F0.0299961676192
F0.038789813203178515
tp63
sI550
(F0.243692155388
F0.030616785575927497
tp64
sI1450
(F0.000633405653891
F0.0740012891000593
tp65
sI300
(F9.96847351658
F0.04202889020692697
tp66
sI1200
(F0.00223700449373
F0.05827691611858459
tp67
sI950
(F0.0107505168958
F0.04560443297210561
tp68
sI700
(F0.0633940965462
F0.03520177802445182
tp69
sI450
(F0.751742843545
F0.0310540543739843
tp70
sI1350
(F0.00106718949497
F0.0668367220615352
tp71
sI200
(F0.0
F0.0
tp72
sI1100
(F0.004301828833
F0.05309508591412614
tp73
sI850
(F0.0215316103971
F0.040850975764426235
tp74
sI600
(F0.149072332605
F0.0319921469172747
tp75
sI1500
(F0.000492834618216
F0.07831331896409988
tp76
sI350
(F3.45319586715
F0.03655557283525403
tp77
sI1250
(F0.00185214198846
F0.06068368705870811
tp78
sI1000
(F0.00776932697647
F0.04809968446376186
tp79
sI750
(F0.0422767652353
F0.03784483032263967
tp80
sI500
(F0.414218938773
F0.030903991752089365
tp81
sI1400
(F0.000802786651406
F0.0700483468817176
tp82
sI250
(F46.5643623523
F0.05388554288934794
tp83
sI1150
(F0.00318767897742
F0.05541447637552553
tp84
ssI1300
(dp85
I900
(F0.0151020051935
F0.04327378697851856
tp86
sI650
(F0.0952980428269
F0.033597385961700255
tp87
sI400
(F1.50052477803
F0.03328381036764292
tp88
sI1300
(F0.00146288676895
F0.06393167237012352
tp89
sI1050
(F0.00542747473537
F0.050828905880515966
tp90
sI800
(F0.0296782650208
F0.03916218693597576
tp91
sI550
(F0.246054477489
F0.03032401921490563
tp92
sI1450
(F0.000641828078222
F0.07405757516354593
tp93
sI300
(F10.0276237482
F0.042031026640848575
tp94
sI1200
(F0.0022908086642
F0.057494636760506444
tp95
sI950
(F0.0111955590655
F0.04581466938329199
tp96
sI700
(F0.0631515131434
F0.0352266933550506
tp97
sI450
(F0.750396063644
F0.03244566682075595
tp98
sI1350
(F0.00108833188419
F0.06685408541499435
tp99
sI200
(F0.0
F0.0
tp100
sI1100
(F0.00455235479011
F0.053537840274991144
tp101
sI850
(F0.0224020924684
F0.04105620976452875
tp102
sI600
(F0.151461407894
F0.03153749867083617
tp103
sI1500
(F0.000494861483764
F0.07879665778231391
tp104
sI350
(F3.4568019961
F0.03677806225969392
tp105
sI1250
(F0.00191723385239
F0.06127862292570314
tp106
sI1000
(F0.00736689245246
F0.049479919738108766
tp107
sI750
(F0.0426301489297
F0.03673489578684005
tp108
sI500
(F0.409802993376
F0.03145215717268807
tp109
sI1400
(F0.000790355208735
F0.06969313263344189
tp110
sI250
(F47.0673266989
F0.05363770929312205
tp111
sI1150
(F0.00298078959296
F0.05590269350730256
tp112
ssI1050
(dp113
I900
(F0.0148663525996
F0.0433624512837362
tp114
sI650
(F0.0962698561662
F0.033486745062281005
tp115
sI400
(F1.50805944641
F0.03313525329525674
tp116
sI1300
(F0.00142959115817
F0.0638965088053081
tp117
sI1050
(F0.00556725838165
F0.05041720909813631
tp118
sI800
(F0.0304610185044
F0.03904858087388595
tp119
sI550
(F0.242516884574
F0.03044476772476882
tp120
sI1450
(F0.000632803522002
F0.0736008137453963
tp121
sI300
(F10.0220791921
F0.04199687319740751
tp122
sI1200
(F0.00223820634186
F0.05833229595824572
tp123
sI950
(F0.0110555582435
F0.04585632103363628
tp124
sI700
(F0.062765807094
F0.03520576000433896
tp125
sI450
(F0.748386175528
F0.0328304867763832
tp126
sI1350
(F0.00109175892776
F0.06677895951552681
tp127
sI200
(F0.0
F0.0
tp128
sI1100
(F0.00419588118552
F0.05270443290938747
tp129
sI850
(F0.0206993267977
F0.04204777294857289
tp130
sI600
(F0.151358506557
F0.03159797186905326
tp131
sI1500
(F0.000496037713955
F0.07840352962583033
tp132
sI350
(F3.45631686027
F0.03658221501981239
tp133
sI1250
(F0.00185888878761
F0.0613153636202969
tp134
sI1000
(F0.00777862594336
F0.04815888515525997
tp135
sI750
(F0.0423399606635
F0.03710069547948766
tp136
sI500
(F0.417172320235
F0.029935767124158897
tp137
sI1400
(F0.000822029700655
F0.0699968107775815
tp138
sI250
(F46.9227722042
F0.05421190221924505
tp139
sI1150
(F0.00318180115817
F0.055538538320425886
tp140
ssI800
(dp141
I900
(F0.0152763543675
F0.043283681625095036
tp142
sI650
(F0.0951802637117
F0.033604358692240405
tp143
sI400
(F1.50500012129
F0.033182348996885644
tp144
sI1300
(F0.00141158297593
F0.0638157999192724
tp145
sI1050
(F0.00596788453444
F0.05107109995813614
tp146
sI800
(F0.0288407164137
F0.04008768107926746
tp147
sI550
(F0.241628381342
F0.03238143177475311
tp148
sI1450
(F0.0006571395099
F0.07431706923501176
tp149
sI300
(F9.98930698029
F0.04272911922660811
tp150
sI1200
(F0.00224605977684
F0.058005238360261516
tp151
sI950
(F0.0109101149604
F0.045776470795381004
tp152
sI700
(F0.0629356825837
F0.03537318569492377
tp153
sI450
(F0.750208121628
F0.03204344709563163
tp154
sI1350
(F0.00116637438145
F0.06820664943052021
tp155
sI200
(F0.0
F0.0
tp156
sI1100
(F0.0046097547127
F0.05344391725166249
tp157
sI850
(F0.0208461586415
F0.04137376076213816
tp158
sI600
(F0.149776423241
F0.031935437456558566
tp159
sI1500
(F0.000497308278648
F0.07843597083110186
tp160
sI350
(F3.45645552771
F0.03679160123788798
tp161
sI1250
(F0.00180833616764
F0.06044902211222137
tp162
sI1000
(F0.00786882642274
F0.047996496894195
tp163
sI750
(F0.0425832960158
F0.03746945579900585
tp164
sI500
(F0.411897864234
F0.03143265406359271
tp165
sI1400
(F0.000801244044919
F0.06954906814806153
tp166
sI250
(F46.740594235
F0.0539296105741947
tp167
sI1150
(F0.00322300125716
F0.055191859163512984
tp168
ssI550
(dp169
I900
(F0.0148541796907
F0.043540580698571155
tp170
sI650
(F0.096437667071
F0.033296857565788304
tp171
sI400
(F1.50447229185
F0.03252363287444216
tp172
sI1300
(F0.00142676330645
F0.06381576355201198
tp173
sI1050
(F0.00556238264882
F0.05083879700706851
tp174
sI800
(F0.0302057688047
F0.038352673602525304
tp175
sI550
(F0.242991187034
F0.030548641544647242
tp176
sI1450
(F0.000627173860681
F0.07339052702885458
tp177
sI300
(F9.97950567124
F0.04222400349562026
tp178
sI1200
(F0.00226634936943
F0.05770592956940808
tp179
sI950
(F0.0110506134795
F0.045653430971040236
tp180
sI700
(F0.0641861736697
F0.034535305976751494
tp181
sI450
(F0.752238582026
F0.031120319295176578
tp182
sI1350
(F0.0011047129721
F0.06710850348717473
tp183
sI200
(F0.0
F0.0
tp184
sI1100
(F0.00441983678483
F0.05320560894083896
tp185
sI850
(F0.0208351720633
F0.04136511394125224
tp186
sI600
(F0.151298079271
F0.03157674293751412
tp187
sI1500
(F0.000495241514436
F0.07837853227269424
tp188
sI350
(F3.44357645449
F0.0367487543484037
tp189
sI1250
(F0.00178177412225
F0.06052906158823859
tp190
sI1000
(F0.00735556231357
F0.04881486472592072
tp191
sI750
(F0.0417170596004
F0.03798386428617818
tp192
sI500
(F0.410893291102
F0.03228106376554912
tp193
sI1400
(F0.000802992393539
F0.06957622386704032
tp194
sI250
(F46.6277234023
F0.054026458231193404
tp195
sI1150
(F0.0032221128288
F0.055230027107174895
tp196
ssI1450
(dp197
I900
(F0.0154401999966
F0.043747045433721064
tp198
sI650
(F0.0956495211068
F0.03353660444612463
tp199
sI400
(F1.51068319243
F0.03277008605475294
tp200
sI1300
(F0.00142041085796
F0.06366375361180641
tp201
sI1050
(F0.00587831665343
F0.050486171581422455
tp202
sI800
(F0.0290669520302
F0.04017478008897258
tp203
sI550
(F0.247012888367
F0.03028488677273166
tp204
sI1450
(F0.000628943464621
F0.07420884461980244
tp205
sI300
(F10.0425742601
F0.041906531068141614
tp206
sI1200
(F0.00231379813528
F0.057923343650625535
tp207
sI950
(F0.0117845928597
F0.046625497936547945
tp208
sI700
(F0.0638772434123
F0.03516002260560185
tp209
sI450
(F0.753376257023
F0.032354246683481365
tp210
sI1350
(F0.001071232224
F0.06652437071506542
tp211
sI200
(F0.0
F0.0
tp212
sI1100
(F0.00437118601811
F0.05304027033222579
tp213
sI850
(F0.0217426210409
F0.040836186116558815
tp214
sI600
(F0.15207922444
F0.03160252190999403
tp215
sI1500
(F0.000494134175152
F0.0780896394203667
tp216
sI350
(F3.45660397118
F0.03656762441282801
tp217
sI1250
(F0.00182382721636
F0.06036261552819675
tp218
sI1000
(F0.00736996491862
F0.049473981242270836
tp219
sI750
(F0.0432346704899
F0.03667793962695858
tp220
sI500
(F0.412833683581
F0.03008812010457684
tp221
sI1400
(F0.00083877439971
F0.07087689002698973
tp222
sI250
(F47.1435644392
F0.05244672645380392
tp223
sI1150
(F0.00310026419472
F0.05518991564699639
tp224
ssI300
(dp225
I900
(F0.015148340687
F0.043117245720022936
tp226
sI650
(F0.0950604413147
F0.033678291296496736
tp227
sI400
(F1.50035693668
F0.03295189546508866
tp228
sI1300
(F0.00146210245965
F0.06436587832615237
tp229
sI1050
(F0.0056373070326
F0.050684389285999304
tp230
sI800
(F0.0302202289169
F0.038796636432635916
tp231
sI550
(F0.241096111899
F0.030675659082665927
tp232
sI1450
(F0.00065776397304
F0.07421229977600416
tp233
sI300
(F9.96249408876
F0.04234007453755003
tp234
sI1200
(F0.00231101565866
F0.05769495406072291
tp235
sI950
(F0.0111596274789
F0.04582451286271851
tp236
sI700
(F0.0612931082248
F0.03676088127406028
tp237
sI450
(F0.751416041015
F0.031073608119491683
tp238
sI1350
(F0.00110192321507
F0.06735631874230462
tp239
sI200
(F0.0
F0.0
tp240
sI1100
(F0.00467746391344
F0.05447402327207039
tp241
sI850
(F0.0205238894337
F0.04155672611603229
tp242
sI600
(F0.150057480608
F0.03182305696144958
tp243
sI1500
(F0.000491737415979
F0.07813199709932339
tp244
sI350
(F3.45094250662
F0.03655808396894051
tp245
sI1250
(F0.00175006398163
F0.0599891173351375
tp246
sI1000
(F0.00735150674199
F0.04876405528249023
tp247
sI750
(F0.04196676718
F0.03800117984665789
tp248
sI500
(F0.415444663501
F0.030805621680272694
tp249
sI1400
(F0.000808582677169
F0.07020929247737845
tp250
sI250
(F46.5300740067
F0.05293633458213126
tp251
sI1150
(F0.0031777793175
F0.0558080274118972
tp252
ssI1200
(dp253
I900
(F0.014886849203
F0.043436827909138054
tp254
sI650
(F0.0949386519898
F0.033847384889404614
tp255
sI400
(F1.51037626493
F0.032896844178031875
tp256
sI1300
(F0.00138724373951
F0.06327785867291509
tp257
sI1050
(F0.00551058409367
F0.050884814100577984
tp258
sI800
(F0.0293790205875
F0.03939511419527848
tp259
sI550
(F0.241749533032
F0.030709405281363247
tp260
sI1450
(F0.000638960231531
F0.07406104188239156
tp261
sI300
(F10.0333663278
F0.04216160630634081
tp262
sI1200
(F0.00239276962125
F0.057353771875166056
tp263
sI950
(F0.011672587664
F0.04652454179889207
tp264
sI700
(F0.0630881961964
F0.03513084932671559
tp265
sI450
(F0.745039629735
F0.03249253922346456
tp266
sI1350
(F0.00105889673823
F0.06654009053288422
tp267
sI200
(F0.0
F0.0
tp268
sI1100
(F0.00425047409764
F0.05264805501655672
tp269
sI850
(F0.0211559697809
F0.04118237036813048
tp270
sI600
(F0.148912901411
F0.03235422030789942
tp271
sI1500
(F0.000491242031245
F0.07821853424597631
tp272
sI350
(F3.45005942502
F0.03476659948757395
tp273
sI1250
(F0.0019208086395
F0.061392623907447805
tp274
sI1000
(F0.0078746646518
F0.048033221308864275
tp275
sI750
(F0.0426191023936
F0.03678754824797625
tp276
sI500
(F0.414505968157
F0.031353490374057776
tp277
sI1400
(F0.000793698267172
F0.0699482010177665
tp278
sI250
(F47.0207920228
F0.05449532661886057
tp279
sI1150
(F0.00322515640907
F0.05512336669751305
tp280
ssI950
(dp281
I900
(F0.0150689272539
F0.043179661400887005
tp282
sI650
(F0.0943885519003
F0.03402607365512292
tp283
sI400
(F1.50871292362
F0.03275205744863479
tp284
sI1300
(F0.00141188881677
F0.06369908203214474
tp285
sI1050
(F0.00587355626668
F0.050646891950206455
tp286
sI800
(F0.0292313112113
F0.03983546053075646
tp287
sI550
(F0.241629850136
F0.030670809069652485
tp288
sI1450
(F0.000631022829455
F0.07385415301574828
tp289
sI300
(F10.0092079197
F0.04269174044271503
tp290
sI1200
(F0.00244853377871
F0.05816695725269323
tp291
sI950
(F0.0108778362339
F0.04556189161962669
tp292
sI700
(F0.0621485865269
F0.035656403699557075
tp293
sI450
(F0.753257480814
F0.031948429998589566
tp294
sI1350
(F0.00105855158748
F0.06651365917339411
tp295
sI200
(F0.0
F0.0
tp296
sI1100
(F0.00424833744405
F0.052738641227710124
tp297
sI850
(F0.0208321974303
F0.041962061855104614
tp298
sI600
(F0.149838975823
F0.03223316100235008
tp299
sI1500
(F0.000494752055357
F0.07797894497307649
tp300
sI350
(F3.46322775828
F0.03650736389303852
tp301
sI1250
(F0.00180873107216
F0.06045126798779725
tp302
sI1000
(F0.00775516144545
F0.048038853821486434
tp303
sI750
(F0.0425990448597
F0.03678286297898546
tp304
sI500
(F0.414962452346
F0.031287026324913585
tp305
sI1400
(F0.00079798077223
F0.06946379933829198
tp306
sI250
(F46.8247525468
F0.05260521418213745
tp307
sI1150
(F0.00309784149088
F0.05510563395369433
tp308
ssI700
(dp309
I900
(F0.0146682368738
F0.0437529079679185
tp310
sI650
(F0.0945089601492
F0.03399687726526317
tp311
sI400
(F1.50697066763
F0.03323568977574632
tp312
sI1300
(F0.00140237587563
F0.06364759658846957
tp313
sI1050
(F0.00557081640703
F0.05057301037106011
tp314
sI800
(F0.0292288360992
F0.03989752179806839
tp315
sI550
(F0.243901230553
F0.030343481177032422
tp316
sI1450
(F0.000649624310743
F0.07429677000002893
tp317
sI300
(F9.98217831966
F0.04265183601433616
tp318
sI1200
(F0.00228910032161
F0.05744583365551765
tp319
sI950
(F0.0113576409598
F0.0460479822585631
tp320
sI700
(F0.0630178570768
F0.03529768637767447
tp321
sI450
(F0.750001880279
F0.031539401320434694
tp322
sI1350
(F0.00115477116729
F0.06794695159053567
tp323
sI200
(F0.0
F0.0
tp324
sI1100
(F0.00442167656751
F0.05297143520153462
tp325
sI850
(F0.0208202193308
F0.04180592435697243
tp326
sI600
(F0.150220878425
F0.031737387699608634
tp327
sI1500
(F0.000491252449501
F0.07817822916814142
tp328
sI350
(F3.45196058835
F0.034669224861053304
tp329
sI1250
(F0.00179477271974
F0.06039095580174723
tp330
sI1000
(F0.00718506525662
F0.04976486426181817
tp331
sI750
(F0.0425744838649
F0.03742417558756569
tp332
sI500
(F0.416721937356
F0.030819637416228004
tp333
sI1400
(F0.000806531867922
F0.06974243932285626
tp334
sI250
(F46.7099012237
F0.054014562893142125
tp335
sI1150
(F0.00305619040572
F0.0551813988449026
tp336
ssI450
(dp337
I900
(F0.0149871516988
F0.04355430786366599
tp338
sI650
(F0.0967238057909
F0.03303092162064803
tp339
sI400
(F1.50273424076
F0.03321708009618189
tp340
sI1300
(F0.00146126919047
F0.06411757074667723
tp341
sI1050
(F0.00571097811534
F0.05036703880940633
tp342
sI800
(F0.0295949785412
F0.03882249200959931
tp343
sI550
(F0.2453664172
F0.030341511854214742
tp344
sI1450
(F0.000640393396979
F0.07449265735552915
tp345
sI300
(F9.96357045166
F0.04280286462479394
tp346
sI1200
(F0.00228837027274
F0.05747665463706359
tp347
sI950
(F0.0107555655988
F0.04575254498581674
tp348
sI700
(F0.0633020166051
F0.03500873175723529
tp349
sI450
(F0.74541618813
F0.03287700431953323
tp350
sI1350
(F0.00105536729475
F0.0667781071833333
tp351
sI200
(F0.0
F0.0
tp352
sI1100
(F0.00419110541444
F0.052629314256576014
tp353
sI850
(F0.021259332239
F0.041028762417470395
tp354
sI600
(F0.149096095563
F0.03229883987669666
tp355
sI1500
(F0.000497307533721
F0.07854086204556253
tp356
sI350
(F3.42965608687
F0.03671397806038177
tp357
sI1250
(F0.00187066622701
F0.06112328412576231
tp358
sI1000
(F0.00765031630248
F0.048188769230690744
tp359
sI750
(F0.0419800316701
F0.0380219554254614
tp360
sI500
(F0.414279351046
F0.030846407289030115
tp361
sI1400
(F0.000852964465496
F0.0710323876225816
tp362
sI250
(F46.6168339225
F0.05404755145681247
tp363
sI1150
(F0.00326693579784
F0.05568304354259896
tp364
ssI1350
(dp365
I900
(F0.0150568725518
F0.04326291734408862
tp366
sI650
(F0.095316851539
F0.033556361041167014
tp367
sI400
(F1.50487130389
F0.03319980725245591
tp368
sI1300
(F0.00139165886731
F0.06385273599705067
tp369
sI1050
(F0.00580431633601
F0.05054443953578043
tp370
sI800
(F0.0296507698662
F0.03906974516403897
tp371
sI550
(F0.241909921088
F0.03100946508039729
tp372
sI1450
(F0.000644157666829
F0.07419492537156641
tp373
sI300
(F10.0306930506
F0.042017481591642314
tp374
sI1200
(F0.00241979860821
F0.05799448732421998
tp375
sI950
(F0.0109291255717
F0.04590159571640527
tp376
sI700
(F0.0634772496164
F0.03531171299348307
tp377
sI450
(F0.754504969513
F0.030987442882835996
tp378
sI1350
(F0.00106360893942
F0.06655048454378286
tp379
sI200
(F0.0
F0.0
tp380
sI1100
(F0.0043691466849
F0.053114727402042226
tp381
sI850
(F0.0209751620631
F0.04115528289026334
tp382
sI600
(F0.149461405857
F0.03229171765584566
tp383
sI1500
(F0.000486831573043
F0.07830982410898948
tp384
sI350
(F3.4523960523
F0.03825479906889998
tp385
sI1250
(F0.00182713468719
F0.060999462131830294
tp386
sI1000
(F0.00736545704141
F0.04931244762218713
tp387
sI750
(F0.0426365638661
F0.036643385317741584
tp388
sI500
(F0.41414754655
F0.031042891554949378
tp389
sI1400
(F0.000840784789857
F0.07026733580545412
tp390
sI250
(F47.0861386125
F0.05364228526841807
tp391
sI1150
(F0.00314246267693
F0.05488773828604557
tp392
ssI200
(dp393
I900
(F0.0150467604343
F0.043199690057153475
tp394
sI650
(F0.0983099477321
F0.03258508066049982
tp395
sI400
(F1.50097065727
F0.03258763050316003
tp396
sI1300
(F0.0014619253386
F0.06438164324796114
tp397
sI1050
(F0.00535259583681
F0.05164527072265341
tp398
sI800
(F0.0284177561268
F0.040239424424210024
tp399
sI550
(F0.244402048464
F0.03018339316287115
tp400
sI1450
(F0.000642824206886
F0.0736914318999826
tp401
sI300
(F9.94525366852
F0.042359717522287434
tp402
sI1200
(F0.00241547240599
F0.05790799249584931
tp403
sI950
(F0.011210619491
F0.04600469250820993
tp404
sI700
(F0.0613317242425
F0.03671143819367406
tp405
sI450
(F0.746019960766
F0.03123183141249521
tp406
sI1350
(F0.00107228065246
F0.0670257097965134
tp407
sI200
(F0.0
F0.0
tp408
sI1100
(F0.00413835655029
F0.05271735630578084
tp409
sI850
(F0.0205303273949
F0.04157264775436657
tp410
sI600
(F0.147503025047
F0.03271357410163257
tp411
sI1500
(F0.00049814708591
F0.07798093587627307
tp412
sI350
(F3.43986251806
F0.0367539575312163
tp413
sI1250
(F0.00179195625007
F0.06031834697179561
tp414
sI1000
(F0.00754329076579
F0.04849857444951429
tp415
sI750
(F0.0419612251382
F0.037986205688711576
tp416
sI500
(F0.412445639999
F0.030962730245689983
tp417
sI1400
(F0.000860818228062
F0.07091812327712824
tp418
sI250
(F46.4288093554
F0.053019670482109704
tp419
sI1150
(F0.00326526589418
F0.055728426740480605
tp420
ssI1100
(dp421
I900
(F0.0157056595218
F0.04345062113537967
tp422
sI650
(F0.0958763638904
F0.03370641851389174
tp423
sI400
(F1.5071089469
F0.032774230155424466
tp424
sI1300
(F0.00144527402943
F0.06397200136867058
tp425
sI1050
(F0.00583703032195
F0.05113123237062337
tp426
sI800
(F0.0304655796961
F0.03907824137160289
tp427
sI550
(F0.24671588096
F0.030150167539421617
tp428
sI1450
(F0.000630150780078
F0.07374931094213286
tp429
sI300
(F10.0118812
F0.043079470137040776
tp430
sI1200
(F0.00221334457953
F0.05809277348414661
tp431
sI950
(F0.0113739738187
F0.046061354945942705
tp432
sI700
(F0.0634970459514
F0.03496913700457026
tp433
sI450
(F0.753584189786
F0.0319434631174201
tp434
sI1350
(F0.00104331309773
F0.06622197141924496
tp435
sI200
(F0.0
F0.0
tp436
sI1100
(F0.00449273223955
F0.05318501816701483
tp437
sI850
(F0.0204200212048
F0.04200619109285598
tp438
sI600
(F0.150882231593
F0.031577351027601334
tp439
sI1500
(F0.000488711771902
F0.0779441384637621
tp440
sI350
(F3.46581190204
F0.036406468141196816
tp441
sI1250
(F0.0017829676528
F0.060476384953852706
tp442
sI1000
(F0.00717163540404
F0.0500549382602158
tp443
sI750
(F0.0417153632079
F0.037810967817278725
tp444
sI500
(F0.412316866177
F0.03232728630212782
tp445
sI1400
(F0.000843856152314
F0.07067261569115017
tp446
sI250
(F46.8940594374
F0.052695076293378086
tp447
sI1150
(F0.00322461263486
F0.055146256773170664
tp448
ssI850
(dp449
I900
(F0.0156268488778
F0.043605104275503244
tp450
sI650
(F0.0955070192112
F0.03377696774020666
tp451
sI400
(F1.50535651554
F0.03316482139341656
tp452
sI1300
(F0.0014272855739
F0.06393078029084955
tp453
sI1050
(F0.00579926025306
F0.05074135552197911
tp454
sI800
(F0.0290327954975
F0.040063000184400344
tp455
sI550
(F0.243143787975
F0.030532778096158144
tp456
sI1450
(F0.000621680785936
F0.07358780549526203
tp457
sI300
(F9.99316835614
F0.04235302595437136
tp458
sI1200
(F0.00231312863628
F0.05727917567873724
tp459
sI950
(F0.0108759559921
F0.04553610211182678
tp460
sI700
(F0.0635020234075
F0.035330323009125135
tp461
sI450
(F0.755584272996
F0.03165205934524078
tp462
sI1350
(F0.00113517601557
F0.06797361458157222
tp463
sI200
(F0.0
F0.0
tp464
sI1100
(F0.00431074431536
F0.052802524628276656
tp465
sI850
(F0.0209655641419
F0.04178195677226428
tp466
sI600
(F0.149098476522
F0.032178401966582636
tp467
sI1500
(F0.000496800108905
F0.07840969120429263
tp468
sI350
(F3.45884164155
F0.03656768192091041
tp469
sI1250
(F0.00185328629124
F0.060869267643221016
tp470
sI1000
(F0.00786932091496
F0.04799514971857261
tp471
sI750
(F0.0431783462253
F0.03674954388966932
tp472
sI500
(F0.414059657974
F0.031289980048511606
tp473
sI1400
(F0.000806968482837
F0.06998410193066662
tp474
sI250
(F46.7554456788
F0.053941572960421194
tp475
sI1150
(F0.00322784236531
F0.05572863485628243
tp476
ssI600
(dp477
I900
(F0.01466467398
F0.0436952902952296
tp478
sI650
(F0.0944832127175
F0.034178632040968625
tp479
sI400
(F1.50375732236
F0.032829109666460875
tp480
sI1300
(F0.00141887176395
F0.06382744185230779
tp481
sI1050
(F0.00566306516118
F0.05081989996103674
tp482
sI800
(F0.0286454709312
F0.04038343174417974
tp483
sI550
(F0.245526849194
F0.03241266872936548
tp484
sI1450
(F0.000652645786776
F0.0742610964663049
tp485
sI300
(F9.97901025051
F0.04200210925473084
tp486
sI1200
(F0.00228563598636
F0.05781507773311134
tp487
sI950
(F0.0113272464139
F0.04615913468425901
tp488
sI700
(F0.063054490158
F0.035525227410086326
tp489
sI450
(F0.751637065468
F0.031150995860244512
tp490
sI1350
(F0.0011143561124
F0.06740051385480245
tp491
sI200
(F0.0
F0.0
tp492
sI1100
(F0.00430352924474
F0.05308377146762059
tp493
sI850
(F0.0209535870428
F0.04166868563876821
tp494
sI600
(F0.148150559193
F0.03262035283811702
tp495
sI1500
(F0.000485312475826
F0.07798818583487217
tp496
sI350
(F3.46299084123
F0.03661093558248296
tp497
sI1250
(F0.0017375162242
F0.06011848202804252
tp498
sI1000
(F0.00765209626803
F0.04824922880290044
tp499
sI750
(F0.0431529005277
F0.037206380612107015
tp500
sI500
(F0.41524786022
F0.03077004473311576
tp501
sI1400
(F0.000849489036542
F0.07101092640601435
tp502
sI250
(F46.6396043571
F0.05383320255734083
tp503
sI1150
(F0.00313973600923
F0.054787574281185
tp504
ssI1500
(dp505
I900
(F0.0151079207122
F0.04335379215559979
tp506
sI650
(F0.0957039752868
F0.03350344907064948
tp507
sI400
(F1.51101982391
F0.03313835744254435
tp508
sI1300
(F0.00145442064153
F0.06388158563382404
tp509
sI1050
(F0.00580596101841
F0.05030355439192781
tp510
sI800
(F0.0292621942862
F0.039978295133242976
tp511
sI550
(F0.246106947181
F0.03211428135755678
tp512
sI1450
(F0.000648619520533
F0.07393884546072649
tp513
sI300
(F10.0467326779
F0.04251340077113291
tp514
sI1200
(F0.00236928313424
F0.05785017839793392
tp515
sI950
(F0.0108047155837
F0.0457153982971251
tp516
sI700
(F0.0615435788687
F0.036254101471416916
tp517
sI450
(F0.758732689446
F0.0315147316255204
tp518
sI1350
(F0.00105169749045
F0.06622330297393743
tp519
sI200
(F0.0
F0.0
tp520
sI1100
(F0.00437023561219
F0.053142411554927146
tp521
sI850
(F0.0211392313973
F0.04099939365939759
tp522
sI600
(F0.153153480649
F0.031138202736701162
tp523
sI1500
(F0.00049513901852
F0.07839727137365979
tp524
sI350
(F3.46472277773
F0.03646806166027012
tp525
sI1250
(F0.00179639143808
F0.060429156044088016
tp526
sI1000
(F0.00765734622808
F0.04831071858229879
tp527
sI750
(F0.0432410047394
F0.03672185314471102
tp528
sI500
(F0.415758433294
F0.030901887581712254
tp529
sI1400
(F0.000785353552031
F0.06926994634150789
tp530
sI250
(F47.0980197758
F0.05264584931496483
tp531
sI1150
(F0.00327192757948
F0.05602395349414563
tp532
ssI350
(dp533
I900
(F0.0153615098846
F0.043257274960787684
tp534
sI650
(F0.0956931141268
F0.03343282717187694
tp535
sI400
(F1.5006540954
F0.032975731797346475
tp536
sI1300
(F0.00150180481918
F0.06513104930753083
tp537
sI1050
(F0.00563756370036
F0.0506921278794155
tp538
sI800
(F0.0293979507697
F0.038933799114654416
tp539
sI550
(F0.243622846431
F0.030474947136547685
tp540
sI1450
(F0.000630771434558
F0.0743165054678608
tp541
sI300
(F9.95916911975
F0.042171253937852884
tp542
sI1200
(F0.00250101496642
F0.05798517395143257
tp543
sI950
(F0.0110107157633
F0.04568842509528447
tp544
sI700
(F0.0628723154104
F0.03526030242244415
tp545
sI450
(F0.750188344925
F0.031675890548227184
tp546
sI1350
(F0.00110442761497
F0.06720235798650877
tp547
sI200
(F0.0
F0.0
tp548
sI1100
(F0.00430726511522
F0.05280521502502936
tp549
sI850
(F0.0211222053885
F0.041179044735856936
tp550
sI600
(F0.150151540373
F0.03204603849422276
tp551
sI1500
(F0.000499925132152
F0.07868908882588295
tp552
sI350
(F3.44517142562
F0.03672294923618548
tp553
sI1250
(F0.0018213900493
F0.06044875861725177
tp554
sI1000
(F0.00726457524447
F0.049388704934554786
tp555
sI750
(F0.0422577563332
F0.0372895502462346
tp556
sI500
(F0.414776353165
F0.029979463561784558
tp557
sI1400
(F0.000810934634417
F0.07005288572036492
tp558
sI250
(F46.5178459674
F0.05296751981329362
tp559
sI1150
(F0.00297536277123
F0.05588360383136177
tp560
ssI1250
(dp561
I900
(F0.0150098219022
F0.043403023039301575
tp562
sI650
(F0.0952633946718
F0.03402934798763399
tp563
sI400
(F1.50406932899
F0.032965714898857336
tp564
sI1300
(F0.00136431283936
F0.06306341310117743
tp565
sI1050
(F0.00573376221987
F0.05063555846401713
tp566
sI800
(F0.0298745762763
F0.03871390327492342
tp567
sI550
(F0.245099034381
F0.0324959399549451
tp568
sI1450
(F0.000630370873092
F0.0738483907074589
tp569
sI300
(F10.0376237687
F0.042369210221960725
tp570
sI1200
(F0.00239307636124
F0.058039939003463506
tp571
sI950
(F0.0104895188079
F0.0459617592103369
tp572
sI700
(F0.0639139024946
F0.03491703453452169
tp573
sI450
(F0.750247550583
F0.03247005573089837
tp574
sI1350
(F0.00109751033298
F0.06713391927075614
tp575
sI200
(F0.0
F0.0
tp576
sI1100
(F0.00431434514069
F0.05301581273199183
tp577
sI850
(F0.0215541044204
F0.04084380586941884
tp578
sI600
(F0.152492104423
F0.031085884920642643
tp579
sI1500
(F0.000492264591825
F0.07811342629284589
tp580
sI350
(F3.46653466736
F0.036341225936142404
tp581
sI1250
(F0.00176611541696
F0.05998983877416637
tp582
sI1000
(F0.00747704084713
F0.04901532223067552
tp583
sI750
(F0.0420548880286
F0.03745855897532494
tp584
sI500
(F0.417457451423
F0.02989520522572809
tp585
sI1400
(F0.000801668358334
F0.06981546507075889
tp586
sI250
(F47.0297028986
F0.054460290419488154
tp587
sI1150
(F0.00331355231203
F0.055653633761412726
tp588
ssI1000
(dp589
I900
(F0.0157029864008
F0.04336769503279363
tp590
sI650
(F0.0931333906647
F0.03490453897424922
tp591
sI400
(F1.49989113348
F0.03327216253896566
tp592
sI1300
(F0.00141956175491
F0.06389998310855523
tp593
sI1050
(F0.00587396181773
F0.050617968978882946
tp594
sI800
(F0.0292478472666
F0.03926584593531707
tp595
sI550
(F0.244103049035
F0.030419700202045864
tp596
sI1450
(F0.00063435224953
F0.07343743673001175
tp597
sI300
(F10.0053465649
F0.042581713249156015
tp598
sI1200
(F0.0022615829065
F0.05806397140011281
tp599
sI950
(F0.0113650634767
F0.04602503881437912
tp600
sI700
(F0.0618436921777
F0.036530153036118736
tp601
sI450
(F0.752168361998
F0.03201066113594927
tp602
sI1350
(F0.00114433347095
F0.06781449107739218
tp603
sI200
(F0.0
F0.0
tp604
sI1100
(F0.004292435996
F0.05378991539912526
tp605
sI850
(F0.0217247718138
F0.040825276938403154
tp606
sI600
(F0.151384378462
F0.03152746921769107
tp607
sI1500
(F0.000506374578063
F0.0783382312608211
tp608
sI350
(F3.46130695812
F0.03649436860335826
tp609
sI1250
(F0.00183975051059
F0.0608593576648026
tp610
sI1000
(F0.00745486394856
F0.04842267513355877
tp611
sI750
(F0.0426026165
F0.03677962265345838
tp612
sI500
(F0.414235698053
F0.03136145902311356
tp613
sI1400
(F0.000810747791914
F0.0697270331455883
tp614
sI250
(F46.842574326
F0.05272925301671645
tp615
sI1150
(F0.00332274208716
F0.056462157142732824
tp616
ssI750
(dp617
I900
(F0.0147627906516
F0.043591330260735896
tp618
sI650
(F0.0974347083355
F0.03290994945783295
tp619
sI400
(F1.50462395766
F0.03320605960887542
tp620
sI1300
(F0.00142899921672
F0.06392046703864479
tp621
sI1050
(F0.00557138015956
F0.05059523525608095
tp622
sI800
(F0.0292334890715
F0.03997143938419537
tp623
sI550
(F0.243089636902
F0.030389926092934238
tp624
sI1450
(F0.000661254677303
F0.07479249573600803
tp625
sI300
(F9.98603966097
F0.0420798147160756
tp626
sI1200
(F0.00228922854272
F0.05740889543725844
tp627
sI950
(F0.0107732839263
F0.04570540355016059
tp628
sI700
(F0.0620634029566
F0.03602174783057487
tp629
sI450
(F0.750119275581
F0.032023931078419623
tp630
sI1350
(F0.00108926584502
F0.0672881606581121
tp631
sI200
(F0.0
F0.0
tp632
sI1100
(F0.0041360819975
F0.052973161418326066
tp633
sI850
(F0.0206869512988
F0.041923175340887846
tp634
sI600
(F0.150798134272
F0.031723757833377025
tp635
sI1500
(F0.000495481857041
F0.07851413940466628
tp636
sI350
(F3.45066348602
F0.036519123392512
tp637
sI1250
(F0.00178217820189
F0.06050245244647833
tp638
sI1000
(F0.00735813388623
F0.048899402211387416
tp639
sI750
(F0.0428624045502
F0.03689643308946419
tp640
sI500
(F0.413237584121
F0.03134981751734052
tp641
sI1400
(F0.00082384934001
F0.07042666754712183
tp642
sI250
(F46.7108913036
F0.05541263704189935
tp643
sI1150
(F0.00342266514977
F0.057025123713640456
tp644
ssI500
(dp645
I900
(F0.0147505171986
F0.04363891166549024
tp646
sI650
(F0.0947743009012
F0.033973877220013673
tp647
sI400
(F1.50297485022
F0.03325055771990122
tp648
sI1300
(F0.00139441724091
F0.06345398692959137
tp649
sI1050
(F0.00563857148046
F0.05039836424789222
tp650
sI800
(F0.0298119083308
F0.03850626365988141
tp651
sI550
(F0.245381274975
F0.03023030167471319
tp652
sI1450
(F0.000634185104068
F0.07399994982642798
tp653
sI300
(F9.97554632185
F0.0422336494420556
tp654
sI1200
(F0.00226057764839
F0.05803808971766192
tp655
sI950
(F0.0114149706804
F0.046672289846243484
tp656
sI700
(F0.0622000357089
F0.03585424820022888
tp657
sI450
(F0.749545061587
F0.031937895112689504
tp658
sI1350
(F0.00111416883621
F0.06736314373017856
tp659
sI200
(F0.0
F0.0
tp660
sI1100
(F0.0044877780198
F0.05339732232426226
tp661
sI850
(F0.0199971530678
F0.042319067829293865
tp662
sI600
(F0.150146592137
F0.03178285578127374
tp663
sI1500
(F0.000496377494475
F0.07790602903199845
tp664
sI350
(F3.46394555924
F0.036456806075412795
tp665
sI1250
(F0.00183830928673
F0.06077308347102352
tp666
sI1000
(F0.00744784031151
F0.04855291250178337
tp667
sI750
(F0.0422850802379
F0.03781474357773173
tp668
sI500
(F0.409406110685
F0.032436873191220184
tp669
sI1400
(F0.000813848230094
F0.07006845314096655
tp670
sI250
(F46.5564366407
F0.05310768203162949
tp671
sI1150
(F0.00326721244497
F0.05570363518698923
tp672
ssI1400
(dp673
I900
(F0.0147114118077
F0.043620772304063984
tp674
sI650
(F0.0943574433322
F0.03446951544266865
tp675
sI400
(F1.50781190331
F0.033108949474340524
tp676
sI1300
(F0.00143022292112
F0.06402850498605354
tp677
sI1050
(F0.00603919748849
F0.051011110149011996
tp678
sI800
(F0.0296826078789
F0.03911301951218662
tp679
sI550
(F0.243552493657
F0.030692094957267768
tp680
sI1450
(F0.000620233643051
F0.07326817733581621
tp681
sI300
(F10.0481187893
F0.0425993666222192
tp682
sI1200
(F0.0023145111807
F0.05730519954709675
tp683
sI950
(F0.0110606157374
F0.04592897476695229
tp684
sI700
(F0.0618118994528
F0.03625291616901593
tp685
sI450
(F0.758455465646
F0.03139951403938518
tp686
sI1350
(F0.00110345026326
F0.06746018309233061
tp687
sI200
(F0.0
F0.0
tp688
sI1100
(F0.00455278017554
F0.053586225874624714
tp689
sI850
(F0.0203072396876
F0.04227103157693858
tp690
sI600
(F0.149475265521
F0.0322653484437693
tp691
sI1500
(F0.000504572014006
F0.07824704419700636
tp692
sI350
(F3.45966337439
F0.03654791149219662
tp693
sI1250
(F0.00186952056215
F0.06094885407623438
tp694
sI1000
(F0.00756684402967
F0.048554408177886414
tp695
sI750
(F0.0412421003885
F0.03757702447987193
tp696
sI500
(F0.414879228002
F0.03135014419795753
tp697
sI1400
(F0.000820501383396
F0.06979945724120663
tp698
sI250
(F47.0752474993
F0.054496158419095886
tp699
sI1150
(F0.00327150199331
F0.05605116557715151
tp700
ssI250
(dp701
I900
(F0.0151468584227
F0.04310096298276666
tp702
sI650
(F0.0954030158271
F0.033265305707437715
tp703
sI400
(F1.50530735237
F0.032792219605439675
tp704
sI1300
(F0.00147920197964
F0.06439260390199135
tp705
sI1050
(F0.00578803081539
F0.050437878661558105
tp706
sI800
(F0.0296059725518
F0.03910244397425193
tp707
sI550
(F0.24355551586
F0.03031887684233209
tp708
sI1450
(F0.000626616820176
F0.07375442070836723
tp709
sI300
(F9.95288026077
F0.04249344648282547
tp710
sI1200
(F0.00228795691601
F0.0574525901179275
tp711
sI950
(F0.0107277473918
F0.04573857631277339
tp712
sI700
(F0.0612851881911
F0.036789979439231464
tp713
sI450
(F0.747425919655
F0.031802044762204267
tp714
sI1350
(F0.00117032961217
F0.06839748437389144
tp715
sI200
(F0.0
F0.0
tp716
sI1100
(F0.0044858310932
F0.05346147557975111
tp717
sI850
(F0.0203919102856
F0.041976247874062976
tp718
sI600
(F0.148530747306
F0.0323409126437887
tp719
sI1500
(F0.000496839745629
F0.0784465650121391
tp720
sI350
(F3.44075389443
F0.03672227787303913
tp721
sI1250
(F0.00179203483792
F0.06030732696828553
tp722
sI1000
(F0.00746596323824
F0.048945050090300646
tp723
sI750
(F0.0422584512408
F0.03790124503341072
tp724
sI500
(F0.409805052506
F0.03109656675039022
tp725
sI1400
(F0.000806098918676
F0.06973026236075701
tp726
sI250
(F46.4469755182
F0.054116500271477956
tp727
sI1150
(F0.00317760186617
F0.055844614203630516
tp728
ssI1150
(dp729
I900
(F0.0145905114384
F0.04380544989635324
tp730
sI650
(F0.0946218420948
F0.034155725371548325
tp731
sI400
(F1.50206934271
F0.033481537001191324
tp732
sI1300
(F0.00140317473546
F0.0634437760833941
tp733
sI1050
(F0.00549566363782
F0.050576640057479395
tp734
sI800
(F0.0296695551743
F0.03915215111334768
tp735
sI550
(F0.242580230255
F0.030640314115403057
tp736
sI1450
(F0.000629775263884
F0.0735454852080873
tp737
sI300
(F10.0247524627
F0.04244937071158231
tp738
sI1200
(F0.00229034422009
F0.057540378407321395
tp739
sI950
(F0.0102121913943
F0.04677687061198522
tp740
sI700
(F0.0626784766606
F0.035661152516411575
tp741
sI450
(F0.751217849617
F0.0315830513249869
tp742
sI1350
(F0.00114937221427
F0.06756115971736766
tp743
sI200
(F0.0
F0.0
tp744
sI1100
(F0.00471721701152
F0.05470798751886207
tp745
sI850
(F0.0212697263676
F0.0409198709716738
tp746
sI600
(F0.150401028027
F0.031756030381538264
tp747
sI1500
(F0.000497057088037
F0.07790081038904262
tp748
sI350
(F3.44569309085
F0.03665767903717768
tp749
sI1250
(F0.00175193765026
F0.060058210182528396
tp750
sI1000
(F0.00747545693771
F0.04892010115772629
tp751
sI750
(F0.0424295766399
F0.03753951038041171
tp752
sI500
(F0.414462407049
F0.03134956161769304
tp753
sI1400
(F0.000871287592662
F0.0708272480892995
tp754
sI250
(F46.9138613112
F0.052616915052368346
tp755
sI1150
(F0.00314170133045
F0.055361311744451344
tp756
ss.