(dp0
I1025
(F0.001695053
cnumpy.core.multiarray
scalar
p1
(cnumpy
dtype
p2
(S'f8'
p3
I0
I1
tp4
Rp5
(I3
S'<'
p6
NNNI-1
I-1
I0
tp7
bS'\x96\x80\x13\xe4vs\xc7?'
p8
tp9
Rp10
tp11
sI900
(F0.0036496799999999998
g1
(g5
S'\x92z\xd5\xcc\xb9\x0e\xc6?'
p12
tp13
Rp14
tp15
sI775
(F0.008252180000000001
g1
(g5
S'5\xd8\xa5F\xa6Q\xc4?'
p16
tp17
Rp18
tp19
sI650
(F0.02016274
g1
(g5
S'K\x97\x1b,\xd8t\xc2?'
p20
tp21
Rp22
tp23
sI525
(F0.055002999999999996
g1
(g5
S'C\x80\x1d[\x83\x95\xc0?'
p24
tp25
Rp26
tp27
sI400
(F0.17964410000000003
g1
(g5
S"'Q1\x91f\xfb\xbc?"
p28
tp29
Rp30
tp31
sI1425
(F0.0001802445
g1
(g5
S'\xf4V\xdd\x063@\xcc?'
p32
tp33
Rp34
tp35
sI275
(F0.810816
g1
(g5
S'E\xc0\x8e"4,\xb8?'
p36
tp37
Rp38
tp39
sI1300
(F0.000356384
g1
(g5
S'\xb9\xf8~&(\x83\xcb?'
p40
tp41
Rp42
tp43
sI150
(F7.79317
g1
(g5
S'KG\xc4\x0fvo\xb2?'
p44
tp45
Rp46
tp47
sI1175
(F0.000711586
g1
(g5
S'\x0b\x83\xcf\x9f\x8b \xc8?'
p48
tp49
Rp50
tp51
sI1050
(F0.0014566190000000001
g1
(g5
S'2\xf5\xb4\x08\xa6Q\xc7?'
p52
tp53
Rp54
tp55
sI925
(F0.003110476
g1
(g5
S'f\x1e\xa5\x1f\xf3\xf8\xc5?'
p56
tp57
Rp58
tp59
sI800
(F0.0069704
g1
(g5
S'\xe8\xfb\xd7 \t\xc6\xc4?'
p60
tp61
Rp62
tp63
sI675
(F0.016733920000000003
g1
(g5
S'\\\xa3\xa2\xa5\xd8\xdf\xc2?'
p64
tp65
Rp66
tp67
sI550
(F0.044479000000000005
g1
(g5
S'\xb3D!{\xfb\x03\xc1?'
p68
tp69
Rp70
tp71
sI425
(F0.1389899
g1
(g5
S'\x86\\\xdd9~\xce\xbd?'
p72
tp73
Rp74
tp75
sI1450
(F0.0001614145
g1
(g5
S'4\xd2\xc3i\xcf\xe2\xca?'
p76
tp77
Rp78
tp79
sI300
(F0.577095
g1
(g5
S'V\x00\x02\x1bM"\xb9?'
p80
tp81
Rp82
tp83
sI1325
(F0.0003087041
g1
(g5
S'\x89\xe1|\xda\xa6\x89\xc9?'
p84
tp85
Rp86
tp87
sI175
(F4.435700000000001
g1
(g5
S'\x88W\xbdE\xb9\xa4\xb3?'
p88
tp89
Rp90
tp91
sI1200
(F0.000611895
g1
(g5
S'K\xc24)/\xce\xc8?'
p92
tp93
Rp94
tp95
sI1075
(F0.0012638340000000001
g1
(g5
S'F\x06`\xfe\xa3\xcf\xc7?'
p96
tp97
Rp98
tp99
sI950
(F0.002659179
g1
(g5
S'\x17\t\xb5-o\x15\xc7?'
p100
tp101
Rp102
tp103
sI825
(F0.00588788
g1
(g5
S'i6MM\xc4\x95\xc4?'
p104
tp105
Rp106
tp107
sI700
(F0.013949020000000001
g1
(g5
S'|\xfc/\x1e\x8e<\xc3?'
p108
tp109
Rp110
tp111
sI575
(F0.0362064
g1
(g5
S'\xd0\x98\x02\x0ecb\xc1?'
p112
tp113
Rp114
tp115
sI450
(F0.1087504
g1
(g5
S'\x96\xb6\x13\xb6#\x9e\xbe?'
p116
tp117
Rp118
tp119
sI1475
(F0.0001385566
g1
(g5
S'?|\x82\xc3\xce\x06\xd1?'
p120
tp121
Rp122
tp123
sI325
(F0.41999700000000006
g1
(g5
S'G\x8aL\x8b\xa85\xba?'
p124
tp125
Rp126
tp127
sI1350
(F0.0002737664
g1
(g5
S'!J\x8c\x08Y\x08\xcd?'
p128
tp129
Rp130
tp131
sI200
(F2.709959
g1
(g5
S'\x04\x8e\xbb\xcee\xef\xb4?'
p132
tp133
Rp134
tp135
sI1225
(F0.000530569
g1
(g5
S"\x8a's\x9b.\xb7\xc9?"
p136
tp137
Rp138
tp139
sI1100
(F0.001082998
g1
(g5
S'X\x88R;uw\xc8?'
p140
tp141
Rp142
tp143
sI975
(F0.0022823619999999996
g1
(g5
S'\xad`\xeeci\x9a\xc6?'
p144
tp145
Rp146
tp147
sI850
(F0.00500382
g1
(g5
S'I\t\x90\xd3A\x16\xc5?'
p148
tp149
Rp150
tp151
sI725
(F0.01166625
g1
(g5
S'\r\xa8\xa1\x86O\x7f\xc3?'
p152
tp153
Rp154
tp155
sI600
(F0.029636330000000002
g1
(g5
S'[Tg%r\xe3\xc1?'
p156
tp157
Rp158
tp159
sI475
(F0.0859153
g1
(g5
S'[k\x94<em\xbf?'
p160
tp161
Rp162
tp163
sI1500
(F0.0001214508
g1
(g5
S'\x1do\xf7\xab\xc9\x9a\xcd?'
p164
tp165
Rp166
tp167
sI350
(F0.31163799999999997
g1
(g5
S'\xceF\x13.\\\x17\xbb?'
p168
tp169
Rp170
tp171
sI1375
(F0.00023924169999999998
g1
(g5
S'\xac(I+\x85\\\xcc?'
p172
tp173
Rp174
tp175
sI225
(F1.744654
g1
(g5
S'wZ0\x9e\xad\xf6\xb5?'
p176
tp177
Rp178
tp179
sI1250
(F0.000465194
g1
(g5
S'\xdd\xf8\xd70li\xc9?'
p180
tp181
Rp182
tp183
sI100
(F34.282
g1
(g5
S'\xf5\xc3\xa9B\xc3\xba\xaf?'
p184
tp185
Rp186
tp187
sI1125
(F0.0009484070000000001
g1
(g5
S'\x99\xaa/\xdb\xd1K\xc9?'
p188
tp189
Rp190
tp191
sI1000
(F0.001965386
g1
(g5
S'\xe0\x97y\x95E\x0f\xc7?'
p192
tp193
Rp194
tp195
sI875
(F0.0042524600000000004
g1
(g5
S'\x04\xa7/\xeb\xce\x88\xc5?'
p196
tp197
Rp198
tp199
sI750
(F0.009802169999999999
g1
(g5
S'\x9d\x87 \xc0\xbf\x0b\xc4?'
p200
tp201
Rp202
tp203
sI625
(F0.024371409999999996
g1
(g5
S'\r\xbb\x03\xaa\xe58\xc2?'
p204
tp205
Rp206
tp207
sI500
(F0.06847980000000001
g1
(g5
S'_-S\x90\xf3\x1a\xc0?'
p208
tp209
Rp210
tp211
sI375
(F0.2348942
g1
(g5
S']l\xa7\x0fK\r\xbc?'
p212
tp213
Rp214
tp215
sI1400
(F0.00019974109999999998
g1
(g5
S'|\xc2\xc1\x8f\xe93\xcc?'
p216
tp217
Rp218
tp219
sI250
(F1.170021
g1
(g5
S'\x82\xb1\xc8\x87u\x1b\xb7?'
p220
tp221
Rp222
tp223
sI1275
(F0.00040520399999999994
g1
(g5
S':\xe5\xa8\xed\x0cZ\xca?'
p224
tp225
Rp226
tp227
sI125
(F15.125319999999999
g1
(g5
S'\xdd\xdf\xce\x91\x13#\xb1?'
p228
tp229
Rp230
tp231
sI1150
(F0.0008180020000000001
g1
(g5
S'v\xe6\x86F\x84a\xca?'
p232
tp233
Rp234
tp235
s.