(dp0
I2050
(F0.000761286
F32.9341
tp1
sI2055
(F0.000742602
F32.9529
tp2
sI2060
(F0.000724162
F33.1309
tp3
sI2065
(F0.000706078
F33.2221
tp4
sI2070
(F0.000688773
F33.2606
tp5
sI2075
(F0.000671106
F33.47
tp6
sI2080
(F0.000654555
F33.4624
tp7
sI2085
(F0.000638154
F33.6239
tp8
sI2090
(F0.000622299
F33.6944
tp9
sI2095
(F0.000606772
F33.8846
tp10
sI2100
(F0.000591918
F33.9326
tp11
sI2105
(F0.000577016
F33.9891
tp12
sI2110
(F0.000562775
F34.126
tp13
sI2115
(F0.000548803
F34.1942
tp14
sI2120
(F0.000535625
F34.3143
tp15
sI2125
(F0.000522481
F34.4322
tp16
sI2130
(F0.000509317
F34.5795
tp17
sI2135
(F0.000496197
F34.6013
tp18
sI2140
(F0.000484078
F34.712
tp19
sI2145
(F0.000472404
F34.6967
tp20
sI2150
(F0.000460941
F34.9082
tp21
sI2155
(F0.00044976
F35.0413
tp22
sI2160
(F0.000438717
F35.1403
tp23
sI2165
(F0.000427663
F35.2429
tp24
sI2170
(F0.000417087
F35.2067
tp25
sI2175
(F0.000406541
F35.4714
tp26
sI2180
(F0.000396549
F35.5491
tp27
sI2185
(F0.000387227
F35.7425
tp28
sI2190
(F0.000377685
F35.6672
tp29
sI2195
(F0.00036824
F35.9098
tp30
sI2200
(F0.000359318
F35.9623
tp31
sI2205
(F0.000350402
F36.0185
tp32
sI2210
(F0.000342071
F36.245
tp33
sI2215
(F0.000333108
F36.3203
tp34
sI2220
(F0.000325306
F36.3282
tp35
sI2225
(F0.000316997
F36.5413
tp36
sI2230
(F0.000309731
F36.7432
tp37
sI2235
(F0.000301864
F36.7687
tp38
sI2240
(F0.000294675
F36.9412
tp39
sI2245
(F0.000287398
F37.1824
tp40
sI200
(F3574.52
F14.0616
tp41
sI2250
(F0.00028065
F37.1485
tp42
sI205
(F3183.21
F14.0078
tp43
sI2255
(F0.000273425
F37.3577
tp44
sI210
(F2832.93
F13.9497
tp45
sI2260
(F0.000266633
F37.3399
tp46
sI215
(F2528.15
F13.9683
tp47
sI2265
(F0.000260448
F37.5246
tp48
sI220
(F2259.15
F14.1828
tp49
sI2270
(F0.000254453
F37.7047
tp50
sI225
(F2021.29
F13.8804
tp51
sI2275
(F0.000248358
F37.8684
tp52
sI230
(F1813.06
F14.0218
tp53
sI2280
(F0.00024216
F38.071
tp54
sI235
(F1630.97
F13.7824
tp55
sI2285
(F0.000235996
F38.26
tp56
sI240
(F1468.71
F14.1371
tp57
sI2290
(F0.000230291
F38.1896
tp58
sI245
(F1321.73
F14.1639
tp59
sI2295
(F0.000224084
F38.4083
tp60
sI250
(F1190.35
F13.79
tp61
sI2300
(F0.000219049
F38.5249
tp62
sI255
(F1079.09
F14.1224
tp63
sI2305
(F0.000214032
F38.6523
tp64
sI260
(F974.613
F13.8033
tp65
sI2310
(F0.000208248
F38.6168
tp66
sI265
(F884.867
F13.9004
tp67
sI2315
(F0.000203199
F38.742
tp68
sI270
(F803.354
F13.9615
tp69
sI2320
(F0.00019809
F38.9115
tp70
sI275
(F730.663
F13.9062
tp71
sI2325
(F0.000193715
F39.2614
tp72
sI280
(F664.936
F13.9583
tp73
sI2330
(F0.000189162
F39.1278
tp74
sI285
(F605.955
F13.8771
tp75
sI2335
(F0.000184075
F39.3222
tp76
sI290
(F553.028
F13.9562
tp77
sI2340
(F0.000180106
F39.3788
tp78
sI295
(F505.51
F13.892
tp79
sI2345
(F0.000175678
F39.8124
tp80
sI300
(F462.593
F13.8965
tp81
sI2350
(F0.000171031
F39.6435
tp82
sI305
(F423.86
F13.8693
tp83
sI2355
(F0.000167051
F39.707
tp84
sI310
(F388.489
F13.931
tp85
sI2360
(F0.000163052
F39.8228
tp86
sI315
(F357.206
F13.9637
tp87
sI2365
(F0.000159079
F39.8948
tp88
sI320
(F328.507
F13.8359
tp89
sI2370
(F0.000155058
F40.0085
tp90
sI325
(F302.328
F13.7667
tp91
sI2375
(F0.000151091
F40.0903
tp92
sI330
(F278.679
F13.9051
tp93
sI2380
(F0.000147865
F40.4762
tp94
sI335
(F257.028
F14.0072
tp95
sI2385
(F0.000143836
F40.6052
tp96
sI340
(F236.848
F13.8858
tp97
sI2390
(F0.00014101
F40.553
tp98
sI345
(F219.27
F13.9344
tp99
sI2395
(F0.000137035
F40.6244
tp100
sI350
(F202.663
F14.0017
tp101
sI2400
(F0.000133965
F40.7945
tp102
sI355
(F188.12
F13.9853
tp103
sI2405
(F0.000130879
F40.9847
tp104
sI360
(F174.5
F13.9599
tp105
sI2410
(F0.000127783
F41.1703
tp106
sI365
(F161.954
F13.9485
tp107
sI2415
(F0.0001241
F40.9566
tp108
sI370
(F150.415
F13.8693
tp109
sI2420
(F0.000121089
F41.0638
tp110
sI375
(F139.838
F13.7851
tp111
sI2425
(F0.000118777
F41.508
tp112
sI380
(F129.783
F14.1158
tp113
sI2430
(F0.000115804
F41.5799
tp114
sI385
(F121.226
F13.8818
tp115
sI2435
(F0.00011285
F41.6479
tp116
sI390
(F112.715
F13.7689
tp117
sI2440
(F0.000109965
F41.6973
tp118
sI395
(F105.154
F13.5329
tp119
sI2445
(F0.000107077
F41.6702
tp120
sI400
(F98.0459
F13.8343
tp121
sI2450
(F0.000104886
F41.9997
tp122
sI405
(F91.457
F13.8074
tp123
sI2455
(F0.000102035
F41.9184
tp124
sI410
(F85.32
F13.8223
tp125
sI2460
(F9.97969e-05
F42.1891
tp126
sI415
(F79.7218
F13.8008
tp127
sI2465
(F9.73046e-05
F42.2923
tp128
sI420
(F74.5365
F13.8464
tp129
sI2470
(F9.50093e-05
F42.3683
tp130
sI425
(F69.7057
F13.796
tp131
sI2475
(F9.26878e-05
F42.5345
tp132
sI430
(F65.2467
F13.8063
tp133
sI2480
(F9.04143e-05
F42.5981
tp134
sI435
(F61.0917
F13.7678
tp135
sI2485
(F8.82972e-05
F42.816
tp136
sI440
(F57.2741
F13.8107
tp137
sI2490
(F8.61566e-05
F42.8228
tp138
sI445
(F53.7048
F13.7458
tp139
sI2495
(F8.40135e-05
F42.9963
tp140
sI450
(F50.4009
F13.771
tp141
sI2500
(F8.20068e-05
F43.1071
tp142
sI455
(F47.2946
F13.7682
tp143
sI2505
(F8.00048e-05
F43.2345
tp144
sI460
(F44.3848
F13.7604
tp145
sI2510
(F7.81237e-05
F43.3972
tp146
sI465
(F41.734
F13.8596
tp147
sI2515
(F7.62249e-05
F43.4971
tp148
sI470
(F39.2299
F13.7836
tp149
sI2520
(F7.43669e-05
F43.522
tp150
sI475
(F36.9223
F13.7173
tp151
sI2525
(F7.25103e-05
F43.7345
tp152
sI480
(F34.7729
F13.7767
tp153
sI2530
(F7.08326e-05
F43.9086
tp154
sI485
(F32.7265
F13.8065
tp155
sI2535
(F6.91512e-05
F43.9687
tp156
sI490
(F30.8133
F13.6781
tp157
sI2540
(F6.74523e-05
F44.0719
tp158
sI495
(F29.0606
F13.7001
tp159
sI2545
(F6.57976e-05
F44.1696
tp160
sI500
(F27.4171
F13.6843
tp161
sI2550
(F6.42534e-05
F44.3683
tp162
sI505
(F25.8591
F13.6726
tp163
sI2555
(F6.26926e-05
F44.4751
tp164
sI510
(F24.4095
F13.6471
tp165
sI2560
(F6.11929e-05
F44.5956
tp166
sI515
(F23.0195
F13.8083
tp167
sI2565
(F5.96882e-05
F44.7074
tp168
sI520
(F21.7643
F13.7462
tp169
sI2570
(F5.82621e-05
F44.9635
tp170
sI525
(F20.5106
F13.7124
tp171
sI2575
(F5.67937e-05
F44.99
tp172
sI530
(F19.4189
F13.8652
tp173
sI2580
(F5.54544e-05
F45.1889
tp174
sI535
(F18.3635
F13.7629
tp175
sI2585
(F5.41303e-05
F45.2045
tp176
sI540
(F17.4166
F13.5766
tp177
sI2590
(F5.28013e-05
F45.3827
tp178
sI545
(F16.4219
F13.7981
tp179
sI2595
(F5.15257e-05
F45.5092
tp180
sI550
(F15.5705
F13.6046
tp181
sI2600
(F5.03066e-05
F45.6584
tp182
sI555
(F14.7736
F13.7213
tp183
sI2605
(F4.90915e-05
F45.8195
tp184
sI560
(F13.9732
F13.9263
tp185
sI2610
(F4.79282e-05
F45.9043
tp186
sI565
(F13.2291
F13.686
tp187
sI2615
(F4.67741e-05
F46.1614
tp188
sI570
(F12.5756
F13.4127
tp189
sI2620
(F4.55954e-05
F46.1966
tp190
sI575
(F11.9324
F13.9887
tp191
sI2625
(F4.44978e-05
F46.3849
tp192
sI580
(F11.2814
F13.7528
tp193
sI2630
(F4.3506e-05
F46.4682
tp194
sI585
(F10.7311
F13.3747
tp195
sI2635
(F4.23826e-05
F46.6499
tp196
sI590
(F10.1857
F14.0044
tp197
sI2640
(F4.14053e-05
F46.7612
tp198
sI595
(F9.68722
F13.7127
tp199
sI2645
(F4.0404e-05
F46.8608
tp200
sI600
(F9.20353
F13.7185
tp201
sI2650
(F3.93955e-05
F46.9937
tp202
sI605
(F8.74315
F13.7502
tp203
sI2655
(F3.84871e-05
F47.2308
tp204
sI610
(F8.30988
F13.6818
tp205
sI2660
(F3.75902e-05
F47.3148
tp206
sI615
(F7.9012
F13.7122
tp207
sI2665
(F3.66599e-05
F47.5387
tp208
sI620
(F7.51811
F13.6123
tp209
sI2670
(F3.57884e-05
F47.6153
tp210
sI625
(F7.15194
F13.6874
tp211
sI2675
(F3.48943e-05
F47.7142
tp212
sI630
(F6.80558
F13.6655
tp213
sI2680
(F3.40897e-05
F47.9173
tp214
sI635
(F6.47541
F13.6459
tp215
sI2685
(F3.31887e-05
F48.0319
tp216
sI640
(F6.17196
F13.6449
tp217
sI2690
(F3.24111e-05
F48.0256
tp218
sI645
(F5.87366
F13.6392
tp219
sI2695
(F3.16719e-05
F48.4099
tp220
sI650
(F5.60048
F13.6262
tp221
sI2700
(F3.08937e-05
F48.4106
tp222
sI655
(F5.33799
F13.7031
tp223
sI2705
(F3.01877e-05
F48.5346
tp224
sI660
(F5.09822
F13.7329
tp225
sI2710
(F2.94115e-05
F48.6136
tp226
sI665
(F4.86409
F13.7702
tp227
sI2715
(F2.8704e-05
F48.7651
tp228
sI670
(F4.64349
F13.8022
tp229
sI2720
(F2.80001e-05
F48.9825
tp230
sI675
(F4.43132
F13.8749
tp231
sI2725
(F2.73257e-05
F48.9448
tp232
sI680
(F4.23046
F13.9166
tp233
sI2730
(F2.66994e-05
F49.2684
tp234
sI685
(F4.03841
F13.9934
tp235
sI2735
(F2.60266e-05
F49.2354
tp236
sI690
(F3.85666
F13.9917
tp237
sI2740
(F2.53885e-05
F49.5577
tp238
sI695
(F3.68567
F14.0759
tp239
sI2745
(F2.47946e-05
F49.7102
tp240
sI700
(F3.5251
F14.1034
tp241
sI2750
(F2.41975e-05
F49.786
tp242
sI705
(F3.3737
F14.1609
tp243
sI2755
(F2.36058e-05
F49.9522
tp244
sI710
(F3.22336
F14.1972
tp245
sI2760
(F2.30057e-05
F50.0547
tp246
sI715
(F3.0811
F14.2311
tp247
sI2765
(F2.24532e-05
F49.9341
tp248
sI720
(F2.9509
F14.2518
tp249
sI2770
(F2.19257e-05
F50.2056
tp250
sI725
(F2.81957
F14.3333
tp251
sI2775
(F2.14479e-05
F50.253
tp252
sI730
(F2.7
F14.3772
tp253
sI2780
(F2.09194e-05
F50.5414
tp254
sI735
(F2.57737
F14.4452
tp255
sI2785
(F2.0365e-05
F50.4094
tp256
sI740
(F2.47729
F14.4485
tp257
sI2790
(F1.99069e-05
F50.9182
tp258
sI745
(F2.3661
F14.5381
tp259
sI2795
(F1.94274e-05
F50.9756
tp260
sI750
(F2.26585
F14.5653
tp261
sI2800
(F1.89382e-05
F50.9867
tp262
sI755
(F2.17436
F14.5861
tp263
sI2805
(F1.84485e-05
F50.9972
tp264
sI760
(F2.08446
F14.6279
tp265
sI2810
(F1.80387e-05
F51.2758
tp266
sI765
(F1.99341
F14.7278
tp267
sI2815
(F1.76254e-05
F51.4727
tp268
sI770
(F1.91352
F14.7424
tp269
sI2820
(F1.71424e-05
F51.5152
tp270
sI775
(F1.83188
F14.7835
tp271
sI2825
(F1.67221e-05
F51.7923
tp272
sI780
(F1.76145
F14.8078
tp273
sI2830
(F1.63365e-05
F51.7636
tp274
sI785
(F1.68078
F14.8956
tp275
sI2835
(F1.59378e-05
F51.9408
tp276
sI790
(F1.62071
F14.9017
tp277
sI2840
(F1.56117e-05
F52.2615
tp278
sI795
(F1.54896
F14.9976
tp279
sI2845
(F1.5223e-05
F52.3444
tp280
sI800
(F1.4891
F15.0167
tp281
sI2850
(F1.48268e-05
F52.4222
tp282
sI805
(F1.42888
F15.0599
tp283
sI2855
(F1.45152e-05
F52.7209
tp284
sI810
(F1.36759
F15.1122
tp285
sI2860
(F1.41249e-05
F52.7145
tp286
sI815
(F1.31749
F15.1184
tp287
sI2865
(F1.38168e-05
F52.9801
tp288
sI820
(F1.26659
F15.1928
tp289
sI2870
(F1.34323e-05
F52.9395
tp290
sI825
(F1.2167
F15.2141
tp291
sI2875
(F1.312e-05
F53.1604
tp292
sI830
(F1.16617
F15.2437
tp293
sI2880
(F1.2819e-05
F53.3483
tp294
sI835
(F1.12555
F15.3009
tp295
sI2885
(F1.25112e-05
F53.5412
tp296
sI840
(F1.07523
F15.367
tp297
sI2890
(F1.22184e-05
F53.6652
tp298
sI845
(F1.03426
F15.4018
tp299
sI2895
(F1.19142e-05
F53.7994
tp300
sI850
(F0.996137
F15.4252
tp301
sI2900
(F1.16193e-05
F53.9263
tp302
sI855
(F0.957975
F15.4597
tp303
sI2905
(F1.13278e-05
F54.003
tp304
sI860
(F0.921447
F15.5362
tp305
sI2910
(F1.10278e-05
F54.0968
tp306
sI865
(F0.885917
F15.5643
tp307
sI2915
(F1.08166e-05
F54.4471
tp308
sI870
(F0.852433
F15.6368
tp309
sI2920
(F1.05223e-05
F54.46
tp310
sI875
(F0.820259
F15.6742
tp311
sI2925
(F1.0311e-05
F54.7996
tp312
sI880
(F0.788789
F15.6746
tp313
sI2930
(F1.00202e-05
F54.7577
tp314
sI885
(F0.759346
F15.7507
tp315
sI2935
(F9.78277e-06
F54.9155
tp316
sI890
(F0.731213
F15.7879
tp317
sI2940
(F9.54703e-06
F55.0446
tp318
sI895
(F0.703532
F15.8276
tp319
sI2945
(F9.31052e-06
F55.2299
tp320
sI900
(F0.677478
F15.8762
tp321
sI2950
(F9.08571e-06
F55.3383
tp322
sI905
(F0.652317
F15.914
tp323
sI2955
(F8.86031e-06
F55.4494
tp324
sI910
(F0.627695
F15.9569
tp325
sI2960
(F8.64342e-06
F55.6635
tp326
sI915
(F0.605596
F15.9838
tp327
sI2965
(F8.42871e-06
F55.7493
tp328
sI920
(F0.58302
F16.029
tp329
sI2970
(F8.2237e-06
F55.8355
tp330
sI925
(F0.561889
F16.0626
tp331
sI2975
(F8.02438e-06
F56.0202
tp332
sI930
(F0.540533
F16.1499
tp333
sI2980
(F7.82636e-06
F56.1602
tp334
sI935
(F0.521159
F16.1607
tp335
sI2985
(F7.63385e-06
F56.2893
tp336
sI940
(F0.501865
F16.245
tp337
sI2990
(F7.44713e-06
F56.3994
tp338
sI945
(F0.483546
F16.2492
tp339
sI2995
(F7.26256e-06
F56.4786
tp340
sI950
(F0.466352
F16.3378
tp341
sI3000
(F7.08299e-06
F56.6394
tp342
sI955
(F0.45012
F16.3303
tp343
sI960
(F0.433842
F16.4161
tp344
sI965
(F0.418744
F16.4473
tp345
sI970
(F0.403514
F16.4538
tp346
sI975
(F0.389266
F16.5308
tp347
sI980
(F0.375053
F16.5398
tp348
sI985
(F0.36182
F16.619
tp349
sI990
(F0.349764
F16.6462
tp350
sI995
(F0.337454
F16.6888
tp351
sI1000
(F0.325388
F16.758
tp352
sI1005
(F0.314329
F16.7865
tp353
sI1010
(F0.30314
F16.8766
tp354
sI1015
(F0.292987
F16.8793
tp355
sI1020
(F0.282927
F16.9098
tp356
sI1025
(F0.272778
F16.9917
tp357
sI1030
(F0.263724
F17.0244
tp358
sI1035
(F0.254721
F17.0758
tp359
sI1040
(F0.245426
F17.1325
tp360
sI1045
(F0.237403
F17.1542
tp361
sI1050
(F0.229367
F17.1975
tp362
sI1055
(F0.221273
F17.2482
tp363
sI1060
(F0.214167
F17.3167
tp364
sI1065
(F0.207025
F17.3211
tp365
sI1070
(F0.199967
F17.3603
tp366
sI1075
(F0.193881
F17.4329
tp367
sI1080
(F0.186836
F17.4816
tp368
sI1085
(F0.180783
F17.5245
tp369
sI1090
(F0.174652
F17.5336
tp370
sI1095
(F0.168526
F17.6231
tp371
sI1100
(F0.163491
F17.6402
tp372
sI1105
(F0.158451
F17.6564
tp373
sI1110
(F0.153298
F17.7266
tp374
sI1115
(F0.148246
F17.7755
tp375
sI1120
(F0.143169
F17.813
tp376
sI1125
(F0.139009
F17.8569
tp377
sI1130
(F0.133972
F17.9205
tp378
sI1135
(F0.129938
F17.938
tp379
sI1140
(F0.125799
F17.9658
tp380
sI1145
(F0.121755
F18.0222
tp381
sI1150
(F0.117687
F18.0655
tp382
sI1155
(F0.11358
F18.1327
tp383
sI1160
(F0.110557
F18.1465
tp384
sI1165
(F0.107532
F18.1655
tp385
sI1170
(F0.10339
F18.2421
tp386
sI1175
(F0.10036
F18.2686
tp387
sI1180
(F0.0971485
F18.3142
tp388
sI1185
(F0.0942072
F18.3623
tp389
sI1190
(F0.0912756
F18.3957
tp390
sI1195
(F0.0883712
F18.4467
tp391
sI1200
(F0.0856418
F18.4814
tp392
sI1205
(F0.0830236
F18.5276
tp393
sI1210
(F0.0804313
F18.5714
tp394
sI1215
(F0.0779039
F18.6096
tp395
sI1220
(F0.0755801
F18.6429
tp396
sI1225
(F0.0732255
F18.7227
tp397
sI1230
(F0.0709683
F18.7266
tp398
sI1235
(F0.0688462
F18.7544
tp399
sI1240
(F0.0666928
F18.8404
tp400
sI1245
(F0.0646423
F18.8414
tp401
sI1250
(F0.0627027
F18.9328
tp402
sI1255
(F0.0607803
F18.9693
tp403
sI1260
(F0.0589319
F18.9695
tp404
sI1265
(F0.0571859
F19.0561
tp405
sI1270
(F0.0554225
F19.1806
tp406
sI1275
(F0.0536906
F19.2452
tp407
sI1280
(F0.052051
F19.2396
tp408
sI1285
(F0.0504982
F19.3577
tp409
sI1290
(F0.0489404
F19.4903
tp410
sI1295
(F0.047474
F19.5871
tp411
sI1300
(F0.0460525
F19.64
tp412
sI1305
(F0.0447038
F19.7627
tp413
sI1310
(F0.0433373
F19.8601
tp414
sI1315
(F0.0420362
F19.8634
tp415
sI1320
(F0.0407723
F19.9586
tp416
sI1325
(F0.0395728
F19.951
tp417
sI1330
(F0.0383587
F19.993
tp418
sI1335
(F0.0372043
F20.1012
tp419
sI1340
(F0.0361694
F20.2191
tp420
sI1345
(F0.0350586
F20.1714
tp421
sI1350
(F0.0340187
F20.3088
tp422
sI1355
(F0.0330251
F20.2807
tp423
sI1360
(F0.0320787
F20.3682
tp424
sI1365
(F0.0311325
F20.5466
tp425
sI1370
(F0.0302294
F20.4724
tp426
sI1375
(F0.0292919
F20.6217
tp427
sI1380
(F0.0284627
F20.7773
tp428
sI1385
(F0.0276679
F20.6729
tp429
sI1390
(F0.0268339
F20.8251
tp430
sI1395
(F0.0260313
F20.7488
tp431
sI1400
(F0.0252977
F20.9163
tp432
sI1405
(F0.0245679
F21.0704
tp433
sI1410
(F0.0238741
F20.9586
tp434
sI1415
(F0.0231433
F21.1204
tp435
sI1420
(F0.0225194
F21.2481
tp436
sI1425
(F0.0218959
F21.4183
tp437
sI1430
(F0.0211928
F21.365
tp438
sI1435
(F0.0206244
F21.7574
tp439
sI1440
(F0.0200458
F21.6629
tp440
sI1445
(F0.0194648
F21.5531
tp441
sI1450
(F0.0188887
F21.9548
tp442
sI1455
(F0.018364
F22.1266
tp443
sI1460
(F0.0178858
F22.0054
tp444
sI1465
(F0.0173622
F22.1916
tp445
sI1470
(F0.0168403
F22.3972
tp446
sI1475
(F0.0163556
F22.2173
tp447
sI1480
(F0.0159386
F22.3581
tp448
sI1485
(F0.0154568
F22.2281
tp449
sI1490
(F0.0150345
F22.4111
tp450
sI1495
(F0.0146102
F22.5293
tp451
sI1500
(F0.0141903
F22.7296
tp452
sI1505
(F0.01377
F22.9402
tp453
sI1510
(F0.0133923
F22.6528
tp454
sI1515
(F0.0130286
F23.2697
tp455
sI1520
(F0.012649
F23.0194
tp456
sI1525
(F0.0123374
F23.1801
tp457
sI1530
(F0.0119628
F22.9449
tp458
sI1535
(F0.0116378
F23.1293
tp459
sI1540
(F0.0113183
F23.3535
tp460
sI1545
(F0.0110039
F23.456
tp461
sI1550
(F0.0107027
F23.4971
tp462
sI1555
(F0.0103967
F23.505
tp463
sI1560
(F0.0101149
F23.6723
tp464
sI1565
(F0.00984079
F23.7486
tp465
sI1570
(F0.00956216
F23.8011
tp466
sI1575
(F0.00930893
F23.8712
tp467
sI1580
(F0.00905112
F23.9145
tp468
sI1585
(F0.00880102
F24.088
tp469
sI1590
(F0.00856388
F24.1033
tp470
sI1595
(F0.00832287
F24.2052
tp471
sI1600
(F0.00810078
F24.2679
tp472
sI1605
(F0.0078785
F24.3322
tp473
sI1610
(F0.00767087
F24.4839
tp474
sI1615
(F0.00745579
F24.5137
tp475
sI1620
(F0.00725443
F24.569
tp476
sI1625
(F0.00705942
F24.6853
tp477
sI1630
(F0.00687457
F24.804
tp478
sI1635
(F0.00668418
F24.8672
tp479
sI1640
(F0.00651001
F24.9776
tp480
sI1645
(F0.00633268
F25.0679
tp481
sI1650
(F0.00616072
F25.138
tp482
sI1655
(F0.00599673
F25.2591
tp483
sI1660
(F0.00583243
F25.3829
tp484
sI1665
(F0.00567868
F25.5006
tp485
sI1670
(F0.00553066
F25.5203
tp486
sI1675
(F0.00538094
F25.5439
tp487
sI1680
(F0.00523764
F25.6602
tp488
sI1685
(F0.00509647
F25.8745
tp489
sI1690
(F0.0049577
F25.8847
tp490
sI1695
(F0.00483094
F26.0944
tp491
sI1700
(F0.00470323
F26.1021
tp492
sI1705
(F0.0045807
F26.2095
tp493
sI1710
(F0.00445824
F26.3238
tp494
sI1715
(F0.0043369
F26.3092
tp495
sI1720
(F0.00422488
F26.4093
tp496
sI1725
(F0.00411276
F26.513
tp497
sI1730
(F0.00400698
F26.7386
tp498
sI1735
(F0.00389655
F26.7109
tp499
sI1740
(F0.00379497
F26.8072
tp500
sI1745
(F0.00370003
F27.04
tp501
sI1750
(F0.00359842
F27.1502
tp502
sI1755
(F0.00350486
F27.229
tp503
sI1760
(F0.00341375
F27.3209
tp504
sI1765
(F0.00332255
F27.416
tp505
sI1770
(F0.00323809
F27.6458
tp506
sI1775
(F0.00314866
F27.5834
tp507
sI1780
(F0.00306841
F27.6481
tp508
sI1785
(F0.00298808
F27.7145
tp509
sI1790
(F0.00291365
F27.9548
tp510
sI1795
(F0.0028312
F28.0642
tp511
sI1800
(F0.00276133
F28.108
tp512
sI1805
(F0.00269156
F28.1566
tp513
sI1810
(F0.00262156
F28.2017
tp514
sI1815
(F0.00254938
F28.2755
tp515
sI1820
(F0.00248581
F28.5102
tp516
sI1825
(F0.00241549
F28.5869
tp517
sI1830
(F0.00235625
F28.6103
tp518
sI1835
(F0.00229576
F28.596
tp519
sI1840
(F0.00223603
F28.6654
tp520
sI1845
(F0.00218302
F28.8949
tp521
sI1850
(F0.00212345
F28.9167
tp522
sI1855
(F0.00207
F29.1835
tp523
sI1860
(F0.00200972
F29.1901
tp524
sI1865
(F0.00196025
F29.2103
tp525
sI1870
(F0.00191132
F29.1893
tp526
sI1875
(F0.00185789
F29.4928
tp527
sI1880
(F0.00181527
F29.723
tp528
sI1885
(F0.00176658
F29.7236
tp529
sI1890
(F0.00172274
F29.9813
tp530
sI1895
(F0.00167806
F29.6455
tp531
sI1900
(F0.00163547
F29.9045
tp532
sI1905
(F0.0015925
F30.2039
tp533
sI1910
(F0.00155445
F30.1015
tp534
sI1915
(F0.00151503
F30.0356
tp535
sI1920
(F0.00147199
F30.3575
tp536
sI1925
(F0.0014401
F30.5951
tp537
sI1930
(F0.0014016
F30.5171
tp538
sI1935
(F0.00136297
F30.4873
tp539
sI1940
(F0.001331
F30.7414
tp540
sI1945
(F0.001299
F31.0066
tp541
sI1950
(F0.0012642
F30.4581
tp542
sI1955
(F0.00123087
F30.8644
tp543
sI1960
(F0.00120048
F30.9669
tp544
sI1965
(F0.00117053
F31.0216
tp545
sI1970
(F0.00114051
F31.0814
tp546
sI1975
(F0.00111722
F31.5357
tp547
sI1980
(F0.00108758
F31.5568
tp548
sI1985
(F0.00105813
F31.5103
tp549
sI1990
(F0.00102936
F31.4167
tp550
sI1995
(F0.00100614
F31.7628
tp551
sI2000
(F0.000981077
F31.8422
tp552
sI2005
(F0.000956613
F31.9751
tp553
sI2010
(F0.000932325
F32.0882
tp554
sI2015
(F0.000909408
F32.1466
tp555
sI2020
(F0.000886417
F32.2175
tp556
sI2025
(F0.000863806
F32.3142
tp557
sI2030
(F0.00084231
F32.4635
tp558
sI2035
(F0.000821016
F32.5832
tp559
sI2040
(F0.00080083
F32.6879
tp560
sI2045
(F0.000781098
F32.7197
tp561
s.